---
triple:          'arm64-apple-darwin'
binary-path:     '/Users/perusonari/Documents/GitHub/ps/2025-02-14/build/2225'
relocations:
  - { offset: 0xD5AA, size: 0x8, addend: 0x0, symName: __ZStL8__ioinit, symObjAddr: 0x70C73, symBinAddr: 0x10000C000, symSize: 0x0 }
  - { offset: 0xDEC5, size: 0x8, addend: 0x0, symName: _n, symObjAddr: 0x70C78, symBinAddr: 0x10000C008, symSize: 0x0 }
  - { offset: 0xDEDB, size: 0x8, addend: 0x0, symName: _k, symObjAddr: 0x70C7C, symBinAddr: 0x10000C00C, symSize: 0x0 }
  - { offset: 0xE13E, size: 0x8, addend: 0x0, symName: _cache, symObjAddr: 0x70C80, symBinAddr: 0x10000C010, symSize: 0x0 }
  - { offset: 0xE54D, size: 0x8, addend: 0x0, symName: __ZNSt13unordered_mapIiS_IiiSt4hashIiESt8equal_toIiESaISt4pairIKiiEEES1_S3_SaIS4_IS5_S8_EEED1Ev, symObjAddr: 0x335C, symBinAddr: 0x1000049BC, symSize: 0x20 }
  - { offset: 0xE56D, size: 0x8, addend: 0x0, symName: __ZNSt10_Head_baseILm0ERKiLb0EE7_M_headERS2_, symObjAddr: 0x3344, symBinAddr: 0x1000049A4, symSize: 0x18 }
  - { offset: 0xE5AA, size: 0x8, addend: 0x0, symName: __ZNSt11_Tuple_implILm0EJRKiEE7_M_headERS2_, symObjAddr: 0x3328, symBinAddr: 0x100004988, symSize: 0x1C }
  - { offset: 0xE5E8, size: 0x8, addend: 0x0, symName: __ZSt12__get_helperILm0ERKiJEERT0_RSt11_Tuple_implIXT_EJS2_DpT1_EE, symObjAddr: 0x330C, symBinAddr: 0x10000496C, symSize: 0x1C }
  - { offset: 0xE646, size: 0x8, addend: 0x0, symName: __ZNSt8__detail21_Hashtable_ebo_helperILi0ESaINS_10_Hash_nodeISt4pairIKiiELb0EEEELb1EEC2Ev, symObjAddr: 0x32E0, symBinAddr: 0x100004940, symSize: 0x2C }
  - { offset: 0xE6B1, size: 0x8, addend: 0x0, symName: __ZSt7forwardIRKiEOT_RNSt16remove_referenceIS2_E4typeE, symObjAddr: 0x32CC, symBinAddr: 0x10000492C, symSize: 0x14 }
  - { offset: 0xE6E2, size: 0x8, addend: 0x0, symName: __ZSt3getILm0EJRKiEERNSt13tuple_elementIXT_ESt5tupleIJDpT0_EEE4typeERS6_, symObjAddr: 0x32B0, symBinAddr: 0x100004910, symSize: 0x1C }
  - { offset: 0xE725, size: 0x8, addend: 0x0, symName: __ZNSt8__detail16_Hashtable_allocISaINS_10_Hash_nodeISt4pairIKiiELb0EEEEE19_M_deallocate_nodesEPS5_, symObjAddr: 0x3260, symBinAddr: 0x1000048C0, symSize: 0x50 }
  - { offset: 0xE7A5, size: 0x8, addend: 0x0, symName: __ZNSt15__new_allocatorINSt8__detail10_Hash_nodeISt4pairIKiiELb0EEEED2Ev, symObjAddr: 0x324C, symBinAddr: 0x1000048AC, symSize: 0x14 }
  - { offset: 0xE7C5, size: 0x8, addend: 0x0, symName: __ZSt11__addressofINSt8__detail10_Hash_nodeISt4pairIKiiELb0EEEEPT_RS6_, symObjAddr: 0x3238, symBinAddr: 0x100004898, symSize: 0x14 }
  - { offset: 0xE862, size: 0x8, addend: 0x0, symName: __ZNSt4pairIKiiEC1IJRS0_EJLm0EEJEJEEERSt5tupleIJDpT_EERS4_IJDpT1_EESt12_Index_tupleIJXspT0_EEESD_IJXspT2_EEE, symObjAddr: 0x31F0, symBinAddr: 0x100004850, symSize: 0x48 }
  - { offset: 0xE8D0, size: 0x8, addend: 0x0, symName: __ZNSt15__new_allocatorIPNSt8__detail15_Hash_node_baseEE8allocateEmPKv, symObjAddr: 0x3174, symBinAddr: 0x1000047D4, symSize: 0x7C }
  - { offset: 0xE9C1, size: 0x8, addend: 0x0, symName: __ZNSt4pairIKiSt13unordered_mapIiiSt4hashIiESt8equal_toIiESaIS_IS0_iEEEEC1IJRS0_EJLm0EEJEJEEERSt5tupleIJDpT_EERSC_IJDpT1_EESt12_Index_tupleIJXspT0_EEESL_IJXspT2_EEE, symObjAddr: 0x3108, symBinAddr: 0x100004768, symSize: 0x6C }
  - { offset: 0xEA47, size: 0x8, addend: 0x0, symName: __ZNSt13unordered_mapIiiSt4hashIiESt8equal_toIiESaISt4pairIKiiEEEC1Ev, symObjAddr: 0x30E8, symBinAddr: 0x100004748, symSize: 0x20 }
  - { offset: 0xEA84, size: 0x8, addend: 0x0, symName: __ZNSt10_HashtableIiSt4pairIKiiESaIS2_ENSt8__detail10_Select1stESt8equal_toIiESt4hashIiENS4_18_Mod_range_hashingENS4_20_Default_ranged_hashENS4_20_Prime_rehash_policyENS4_17_Hashtable_traitsILb0ELb0ELb1EEEEC1Ev, symObjAddr: 0x3078, symBinAddr: 0x1000046D8, symSize: 0x70 }
  - { offset: 0xEAC1, size: 0x8, addend: 0x0, symName: __ZNSt8__detail16_Hashtable_allocISaINS_10_Hash_nodeISt4pairIKiiELb0EEEEEC2Ev, symObjAddr: 0x3058, symBinAddr: 0x1000046B8, symSize: 0x20 }
  - { offset: 0xEAFE, size: 0x8, addend: 0x0, symName: __ZNSt8__detail15_Hashtable_baseIiSt4pairIKiiENS_10_Select1stESt8equal_toIiESt4hashIiENS_18_Mod_range_hashingENS_20_Default_ranged_hashENS_17_Hashtable_traitsILb0ELb0ELb1EEEEC2Ev, symObjAddr: 0x3030, symBinAddr: 0x100004690, symSize: 0x28 }
  - { offset: 0xEB3B, size: 0x8, addend: 0x0, symName: __ZNSt8__detail15_Hash_code_baseIiSt4pairIKiiENS_10_Select1stESt4hashIiENS_18_Mod_range_hashingENS_20_Default_ranged_hashELb0EEC2Ev, symObjAddr: 0x3010, symBinAddr: 0x100004670, symSize: 0x20 }
  - { offset: 0xEB5B, size: 0x8, addend: 0x0, symName: __ZSt11__addressofINSt8__detail10_Hash_nodeISt4pairIKiSt13unordered_mapIiiSt4hashIiESt8equal_toIiESaIS2_IS3_iEEEELb0EEEEPT_RSE_, symObjAddr: 0x2FFC, symBinAddr: 0x10000465C, symSize: 0x14 }
  - { offset: 0xEB91, size: 0x8, addend: 0x0, symName: __ZNSt10_HashtableIiSt4pairIKiiESaIS2_ENSt8__detail10_Select1stESt8equal_toIiESt4hashIiENS4_18_Mod_range_hashingENS4_20_Default_ranged_hashENS4_20_Prime_rehash_policyENS4_17_Hashtable_traitsILb0ELb0ELb1EEEE5clearEv, symObjAddr: 0x2F9C, symBinAddr: 0x1000045FC, symSize: 0x60 }
  - { offset: 0xEBD9, size: 0x8, addend: 0x0, symName: __ZNSt8__detail16_Hashtable_allocISaINS_10_Hash_nodeISt4pairIKiiELb0EEEEE21_M_deallocate_bucketsEPPNS_15_Hash_node_baseEm, symObjAddr: 0x2F24, symBinAddr: 0x100004584, symSize: 0x78 }
  - { offset: 0xECE5, size: 0x8, addend: 0x0, symName: __ZNKSt10_HashtableIiSt4pairIKiiESaIS2_ENSt8__detail10_Select1stESt8equal_toIiESt4hashIiENS4_18_Mod_range_hashingENS4_20_Default_ranged_hashENS4_20_Prime_rehash_policyENS4_17_Hashtable_traitsILb0ELb0ELb1EEEE21_M_uses_single_bucketEPPNS4_15_Hash_node_baseE, symObjAddr: 0x2EE8, symBinAddr: 0x100004548, symSize: 0x3C }
  - { offset: 0xED3E, size: 0x8, addend: 0x0, symName: __ZSt9addressofINSt8__detail10_Hash_nodeISt4pairIKiiELb0EEEEPT_RS6_, symObjAddr: 0x2ECC, symBinAddr: 0x10000452C, symSize: 0x1C }
  - { offset: 0xEDBD, size: 0x8, addend: 0x0, symName: __ZNSt4pairIKiiEC1IJRS0_EJEEESt21piecewise_construct_tSt5tupleIJDpT_EES5_IJDpT0_EE, symObjAddr: 0x2E90, symBinAddr: 0x1000044F0, symSize: 0x3C }
  - { offset: 0xEE0F, size: 0x8, addend: 0x0, symName: __ZNK9__gnu_cxx16__aligned_bufferISt4pairIKiiEE7_M_addrEv, symObjAddr: 0x2E7C, symBinAddr: 0x1000044DC, symSize: 0x14 }
  - { offset: 0xEE34, size: 0x8, addend: 0x0, symName: __ZSt12__to_addressIPNSt8__detail15_Hash_node_baseEEPT_S4_, symObjAddr: 0x2E68, symBinAddr: 0x1000044C8, symSize: 0x14 }
  - { offset: 0xEED7, size: 0x8, addend: 0x0, symName: __ZNSt4pairIKiSt13unordered_mapIiiSt4hashIiESt8equal_toIiESaIS_IS0_iEEEEC1IJRS0_EJEEESt21piecewise_construct_tSt5tupleIJDpT_EESD_IJDpT0_EE, symObjAddr: 0x2E2C, symBinAddr: 0x10000448C, symSize: 0x3C }
  - { offset: 0xEF4B, size: 0x8, addend: 0x0, symName: __ZNSt11_Tuple_implILm0EJRKiEEC2EOS2_, symObjAddr: 0x2E04, symBinAddr: 0x100004464, symSize: 0x28 }
  - { offset: 0xEF7C, size: 0x8, addend: 0x0, symName: __ZNK9__gnu_cxx16__aligned_bufferISt4pairIKiSt13unordered_mapIiiSt4hashIiESt8equal_toIiESaIS1_IS2_iEEEEE7_M_addrEv, symObjAddr: 0x2DF0, symBinAddr: 0x100004450, symSize: 0x14 }
  - { offset: 0xEFA1, size: 0x8, addend: 0x0, symName: __ZSt11__addressofIPNSt8__detail15_Hash_node_baseEEPT_RS3_, symObjAddr: 0x2DDC, symBinAddr: 0x10000443C, symSize: 0x14 }
  - { offset: 0xEFD2, size: 0x8, addend: 0x0, symName: __ZSt9addressofINSt8__detail10_Hash_nodeISt4pairIKiSt13unordered_mapIiiSt4hashIiESt8equal_toIiESaIS2_IS3_iEEEELb0EEEEPT_RSE_, symObjAddr: 0x2DC0, symBinAddr: 0x100004420, symSize: 0x1C }
  - { offset: 0xF029, size: 0x8, addend: 0x0, symName: __ZNSt10_HashtableIiSt4pairIKiiESaIS2_ENSt8__detail10_Select1stESt8equal_toIiESt4hashIiENS4_18_Mod_range_hashingENS4_20_Default_ranged_hashENS4_20_Prime_rehash_policyENS4_17_Hashtable_traitsILb0ELb0ELb1EEEED1Ev, symObjAddr: 0x2D90, symBinAddr: 0x1000043F0, symSize: 0x30 }
  - { offset: 0xF073, size: 0x8, addend: 0x0, symName: __ZNSt8__detail16_Hashtable_allocISaINS_10_Hash_nodeISt4pairIKiiELb0EEEEED2Ev, symObjAddr: 0x2D70, symBinAddr: 0x1000043D0, symSize: 0x20 }
  - { offset: 0xF0BD, size: 0x8, addend: 0x0, symName: __ZNSt8__detail21_Hashtable_ebo_helperILi0ESaINS_10_Hash_nodeISt4pairIKiiELb0EEEELb1EED2Ev, symObjAddr: 0x2D44, symBinAddr: 0x1000043A4, symSize: 0x2C }
  - { offset: 0xF105, size: 0x8, addend: 0x0, symName: __ZNSt10_HashtableIiSt4pairIKiiESaIS2_ENSt8__detail10_Select1stESt8equal_toIiESt4hashIiENS4_18_Mod_range_hashingENS4_20_Default_ranged_hashENS4_20_Prime_rehash_policyENS4_17_Hashtable_traitsILb0ELb0ELb1EEEE21_M_deallocate_bucketsEPPNS4_15_Hash_node_baseEm, symObjAddr: 0x2CF8, symBinAddr: 0x100004358, symSize: 0x4C }
  - { offset: 0xF151, size: 0x8, addend: 0x0, symName: __ZNSt8__detail16_Hashtable_allocISaINS_10_Hash_nodeISt4pairIKiiELb0EEEEE19_M_allocate_bucketsEm, symObjAddr: 0x2C48, symBinAddr: 0x1000042A8, symSize: 0xB0 }
  - { offset: 0xF270, size: 0x8, addend: 0x0, symName: __ZNSt19__ptr_traits_ptr_toIPNSt8__detail10_Hash_nodeISt4pairIKiiELb0EEES5_Lb0EE10pointer_toERS5_, symObjAddr: 0x2C2C, symBinAddr: 0x10000428C, symSize: 0x1C }
  - { offset: 0xF2C8, size: 0x8, addend: 0x0, symName: __ZNSt15__new_allocatorINSt8__detail10_Hash_nodeISt4pairIKiiELb0EEEE10deallocateEPS5_m, symObjAddr: 0x2BFC, symBinAddr: 0x10000425C, symSize: 0x30 }
  - { offset: 0xF373, size: 0x8, addend: 0x0, symName: __ZNSt15__new_allocatorINSt8__detail10_Hash_nodeISt4pairIKiiELb0EEEE8allocateEmPKv, symObjAddr: 0x2B80, symBinAddr: 0x1000041E0, symSize: 0x7C }
  - { offset: 0xF3FD, size: 0x8, addend: 0x0, symName: __ZNSt8__detail21_Hashtable_ebo_helperILi0ESaINS_10_Hash_nodeISt4pairIKiiELb0EEEELb1EE6_M_getEv, symObjAddr: 0x2B6C, symBinAddr: 0x1000041CC, symSize: 0x14 }
  - { offset: 0xF42B, size: 0x8, addend: 0x0, symName: __ZN9__gnu_cxx16__aligned_bufferISt4pairIKiiEE7_M_addrEv, symObjAddr: 0x2B58, symBinAddr: 0x1000041B8, symSize: 0x14 }
  - { offset: 0xF450, size: 0x8, addend: 0x0, symName: __ZNSt8__detail15_Hashtable_baseIiSt4pairIKiiENS_10_Select1stESt8equal_toIiESt4hashIiENS_18_Mod_range_hashingENS_20_Default_ranged_hashENS_17_Hashtable_traitsILb0ELb0ELb1EEEE9_S_equalsEmRKNS_21_Hash_node_code_cacheILb0EEE, symObjAddr: 0x2B40, symBinAddr: 0x1000041A0, symSize: 0x18 }
  - { offset: 0xF47F, size: 0x8, addend: 0x0, symName: __ZNK9__gnu_cxx16__aligned_bufferISt4pairIKiiEE6_M_ptrEv, symObjAddr: 0x2B24, symBinAddr: 0x100004184, symSize: 0x1C }
  - { offset: 0xF4A9, size: 0x8, addend: 0x0, symName: __ZNSt8__detail16_Hashtable_allocISaINS_10_Hash_nodeISt4pairIKiSt13unordered_mapIiiSt4hashIiESt8equal_toIiESaIS2_IS3_iEEEELb0EEEEE19_M_allocate_bucketsEm, symObjAddr: 0x2A74, symBinAddr: 0x1000040D4, symSize: 0xB0 }
  - { offset: 0xF5CD, size: 0x8, addend: 0x0, symName: __ZNSt15__new_allocatorINSt8__detail10_Hash_nodeISt4pairIKiSt13unordered_mapIiiSt4hashIiESt8equal_toIiESaIS2_IS3_iEEEELb0EEEE10deallocateEPSD_m, symObjAddr: 0x2A38, symBinAddr: 0x100004098, symSize: 0x3C }
  - { offset: 0xF689, size: 0x8, addend: 0x0, symName: __ZNSt5tupleIJRKiEEC1EOS2_, symObjAddr: 0x2A10, symBinAddr: 0x100004070, symSize: 0x28 }
  - { offset: 0xF6B6, size: 0x8, addend: 0x0, symName: __ZNSt15__new_allocatorINSt8__detail10_Hash_nodeISt4pairIKiSt13unordered_mapIiiSt4hashIiESt8equal_toIiESaIS2_IS3_iEEEELb0EEEE8allocateEmPKv, symObjAddr: 0x2978, symBinAddr: 0x100003FD8, symSize: 0x98 }
  - { offset: 0xF744, size: 0x8, addend: 0x0, symName: __ZN9__gnu_cxx16__aligned_bufferISt4pairIKiSt13unordered_mapIiiSt4hashIiESt8equal_toIiESaIS1_IS2_iEEEEE7_M_addrEv, symObjAddr: 0x2964, symBinAddr: 0x100003FC4, symSize: 0x14 }
  - { offset: 0xF769, size: 0x8, addend: 0x0, symName: __ZNSt8__detail15_Hashtable_baseIiSt4pairIKiSt13unordered_mapIiiSt4hashIiESt8equal_toIiESaIS1_IS2_iEEEENS_10_Select1stES7_S5_NS_18_Mod_range_hashingENS_20_Default_ranged_hashENS_17_Hashtable_traitsILb0ELb0ELb1EEEE9_S_equalsEmRKNS_21_Hash_node_code_cacheILb0EEE, symObjAddr: 0x294C, symBinAddr: 0x100003FAC, symSize: 0x18 }
  - { offset: 0xF798, size: 0x8, addend: 0x0, symName: __ZNK9__gnu_cxx16__aligned_bufferISt4pairIKiSt13unordered_mapIiiSt4hashIiESt8equal_toIiESaIS1_IS2_iEEEEE6_M_ptrEv, symObjAddr: 0x2930, symBinAddr: 0x100003F90, symSize: 0x1C }
  - { offset: 0xF7C2, size: 0x8, addend: 0x0, symName: __ZNKSt8__detail21_Hashtable_ebo_helperILi0ESt8equal_toIiELb1EE7_M_cgetEv, symObjAddr: 0x291C, symBinAddr: 0x100003F7C, symSize: 0x14 }
  - { offset: 0xF7EC, size: 0x8, addend: 0x0, symName: __ZNSt15__new_allocatorIPNSt8__detail15_Hash_node_baseEE10deallocateEPS2_m, symObjAddr: 0x28EC, symBinAddr: 0x100003F4C, symSize: 0x30 }
  - { offset: 0xF857, size: 0x8, addend: 0x0, symName: __ZNSt15__new_allocatorIPNSt8__detail15_Hash_node_baseEED2Ev, symObjAddr: 0x28D8, symBinAddr: 0x100003F38, symSize: 0x14 }
  - { offset: 0xF88C, size: 0x8, addend: 0x0, symName: __ZSt9addressofIPNSt8__detail15_Hash_node_baseEEPT_RS3_, symObjAddr: 0x28BC, symBinAddr: 0x100003F1C, symSize: 0x1C }
  - { offset: 0xF8BD, size: 0x8, addend: 0x0, symName: __ZNSt19__ptr_traits_ptr_toIPNSt8__detail10_Hash_nodeISt4pairIKiSt13unordered_mapIiiSt4hashIiESt8equal_toIiESaIS2_IS3_iEEEELb0EEESD_Lb0EE10pointer_toERSD_, symObjAddr: 0x28A0, symBinAddr: 0x100003F00, symSize: 0x1C }
  - { offset: 0xF93A, size: 0x8, addend: 0x0, symName: __ZNSt4pairIKiSt13unordered_mapIiiSt4hashIiESt8equal_toIiESaIS_IS0_iEEEED1Ev, symObjAddr: 0x287C, symBinAddr: 0x100003EDC, symSize: 0x24 }
  - { offset: 0xF982, size: 0x8, addend: 0x0, symName: __ZNSt13unordered_mapIiiSt4hashIiESt8equal_toIiESaISt4pairIKiiEEED1Ev, symObjAddr: 0x285C, symBinAddr: 0x100003EBC, symSize: 0x20 }
  - { offset: 0xF9A7, size: 0x8, addend: 0x0, symName: __ZNSt8__detail21_Hashtable_ebo_helperILi0ESaINS_10_Hash_nodeISt4pairIKiSt13unordered_mapIiiSt4hashIiESt8equal_toIiESaIS2_IS3_iEEEELb0EEEELb1EE6_M_getEv, symObjAddr: 0x2848, symBinAddr: 0x100003EA8, symSize: 0x14 }
  - { offset: 0xF9D1, size: 0x8, addend: 0x0, symName: __ZNSt10_HashtableIiSt4pairIKiiESaIS2_ENSt8__detail10_Select1stESt8equal_toIiESt4hashIiENS4_18_Mod_range_hashingENS4_20_Default_ranged_hashENS4_20_Prime_rehash_policyENS4_17_Hashtable_traitsILb0ELb0ELb1EEEE21_M_deallocate_bucketsEv, symObjAddr: 0x2814, symBinAddr: 0x100003E74, symSize: 0x34 }
  - { offset: 0xF9FB, size: 0x8, addend: 0x0, symName: __ZNKSt8__detail15_Hash_code_baseIiSt4pairIKiiENS_10_Select1stESt4hashIiENS_18_Mod_range_hashingENS_20_Default_ranged_hashELb0EE15_M_bucket_indexERKNS_16_Hash_node_valueIS3_Lb0EEEm, symObjAddr: 0x27B0, symBinAddr: 0x100003E10, symSize: 0x64 }
  - { offset: 0xFA8D, size: 0x8, addend: 0x0, symName: __ZNSt10_HashtableIiSt4pairIKiiESaIS2_ENSt8__detail10_Select1stESt8equal_toIiESt4hashIiENS4_18_Mod_range_hashingENS4_20_Default_ranged_hashENS4_20_Prime_rehash_policyENS4_17_Hashtable_traitsILb0ELb0ELb1EEEE19_M_allocate_bucketsEm, symObjAddr: 0x2758, symBinAddr: 0x100003DB8, symSize: 0x58 }
  - { offset: 0xFAC8, size: 0x8, addend: 0x0, symName: __ZNSt8__detail16_Hashtable_allocISaINS_10_Hash_nodeISt4pairIKiiELb0EEEEE22_M_deallocate_node_ptrEPS5_, symObjAddr: 0x2700, symBinAddr: 0x100003D60, symSize: 0x58 }
  - { offset: 0xFBF9, size: 0x8, addend: 0x0, symName: __ZSt12__to_addressINSt8__detail10_Hash_nodeISt4pairIKiiELb0EEEEPT_S7_, symObjAddr: 0x26EC, symBinAddr: 0x100003D4C, symSize: 0x14 }
  - { offset: 0xFC53, size: 0x8, addend: 0x0, symName: __ZNSt8__detail16_Hashtable_allocISaINS_10_Hash_nodeISt4pairIKiiELb0EEEEE17_M_node_allocatorEv, symObjAddr: 0x26D0, symBinAddr: 0x100003D30, symSize: 0x1C }
  - { offset: 0xFC7D, size: 0x8, addend: 0x0, symName: __ZN9__gnu_cxx16__aligned_bufferISt4pairIKiiEE6_M_ptrEv, symObjAddr: 0x26B4, symBinAddr: 0x100003D14, symSize: 0x1C }
  - { offset: 0xFCA7, size: 0x8, addend: 0x0, symName: __ZNKSt10_HashtableIiSt4pairIKiiESaIS2_ENSt8__detail10_Select1stESt8equal_toIiESt4hashIiENS4_18_Mod_range_hashingENS4_20_Default_ranged_hashENS4_20_Prime_rehash_policyENS4_17_Hashtable_traitsILb0ELb0ELb1EEEE15_M_bucket_indexERKNS4_16_Hash_node_valueIS2_Lb0EEE, symObjAddr: 0x2684, symBinAddr: 0x100003CE4, symSize: 0x30 }
  - { offset: 0xFCE2, size: 0x8, addend: 0x0, symName: __ZNKSt8__detail15_Hashtable_baseIiSt4pairIKiiENS_10_Select1stESt8equal_toIiESt4hashIiENS_18_Mod_range_hashingENS_20_Default_ranged_hashENS_17_Hashtable_traitsILb0ELb0ELb1EEEE9_M_equalsERS2_mRKNS_16_Hash_node_valueIS3_Lb0EEE, symObjAddr: 0x2624, symBinAddr: 0x100003C84, symSize: 0x60 }
  - { offset: 0xFD40, size: 0x8, addend: 0x0, symName: __ZSt7forwardIRKSt4pairIKiiEEOT_RNSt16remove_referenceIS5_E4typeE, symObjAddr: 0x2610, symBinAddr: 0x100003C70, symSize: 0x14 }
  - { offset: 0xFDB1, size: 0x8, addend: 0x0, symName: __ZNSt8__detail19_Node_iterator_baseISt4pairIKiiELb0EEC2EPNS_10_Hash_nodeIS3_Lb0EEE, symObjAddr: 0x25EC, symBinAddr: 0x100003C4C, symSize: 0x24 }
  - { offset: 0xFDDE, size: 0x8, addend: 0x0, symName: __ZNKSt8__detail15_Hashtable_baseIiSt4pairIKiiENS_10_Select1stESt8equal_toIiESt4hashIiENS_18_Mod_range_hashingENS_20_Default_ranged_hashENS_17_Hashtable_traitsILb0ELb0ELb1EEEE5_M_eqEv, symObjAddr: 0x25D0, symBinAddr: 0x100003C30, symSize: 0x1C }
  - { offset: 0xFE08, size: 0x8, addend: 0x0, symName: __ZNKSt8__detail15_Hash_code_baseIiSt4pairIKiSt13unordered_mapIiiSt4hashIiESt8equal_toIiESaIS1_IS2_iEEEENS_10_Select1stES5_NS_18_Mod_range_hashingENS_20_Default_ranged_hashELb0EE15_M_bucket_indexERKNS_16_Hash_node_valueISB_Lb0EEEm, symObjAddr: 0x256C, symBinAddr: 0x100003BCC, symSize: 0x64 }
  - { offset: 0xFE9A, size: 0x8, addend: 0x0, symName: __ZNSt10_HashtableIiSt4pairIKiSt13unordered_mapIiiSt4hashIiESt8equal_toIiESaIS0_IS1_iEEEESaISA_ENSt8__detail10_Select1stES6_S4_NSC_18_Mod_range_hashingENSC_20_Default_ranged_hashENSC_20_Prime_rehash_policyENSC_17_Hashtable_traitsILb0ELb0ELb1EEEE19_M_allocate_bucketsEm, symObjAddr: 0x2514, symBinAddr: 0x100003B74, symSize: 0x58 }
  - { offset: 0xFED0, size: 0x8, addend: 0x0, symName: __ZSt11__addressofINSt8__detail20_Prime_rehash_policyEEPT_RS2_, symObjAddr: 0x2500, symBinAddr: 0x100003B60, symSize: 0x14 }
  - { offset: 0xFF8B, size: 0x8, addend: 0x0, symName: __ZSt12__to_addressINSt8__detail10_Hash_nodeISt4pairIKiSt13unordered_mapIiiSt4hashIiESt8equal_toIiESaIS2_IS3_iEEEELb0EEEEPT_SF_, symObjAddr: 0x24EC, symBinAddr: 0x100003B4C, symSize: 0x14 }
  - { offset: 0x1000A, size: 0x8, addend: 0x0, symName: __ZNSt10_Head_baseILm0ERKiLb0EEC2ES1_, symObjAddr: 0x24C8, symBinAddr: 0x100003B28, symSize: 0x24 }
  - { offset: 0x10037, size: 0x8, addend: 0x0, symName: __ZN9__gnu_cxx16__aligned_bufferISt4pairIKiSt13unordered_mapIiiSt4hashIiESt8equal_toIiESaIS1_IS2_iEEEEE6_M_ptrEv, symObjAddr: 0x24AC, symBinAddr: 0x100003B0C, symSize: 0x1C }
  - { offset: 0x10061, size: 0x8, addend: 0x0, symName: __ZNKSt10_HashtableIiSt4pairIKiSt13unordered_mapIiiSt4hashIiESt8equal_toIiESaIS0_IS1_iEEEESaISA_ENSt8__detail10_Select1stES6_S4_NSC_18_Mod_range_hashingENSC_20_Default_ranged_hashENSC_20_Prime_rehash_policyENSC_17_Hashtable_traitsILb0ELb0ELb1EEEE15_M_bucket_indexERKNSC_16_Hash_node_valueISA_Lb0EEE, symObjAddr: 0x247C, symBinAddr: 0x100003ADC, symSize: 0x30 }
  - { offset: 0x1009C, size: 0x8, addend: 0x0, symName: __ZNKSt8__detail15_Hashtable_baseIiSt4pairIKiSt13unordered_mapIiiSt4hashIiESt8equal_toIiESaIS1_IS2_iEEEENS_10_Select1stES7_S5_NS_18_Mod_range_hashingENS_20_Default_ranged_hashENS_17_Hashtable_traitsILb0ELb0ELb1EEEE9_M_equalsERS2_mRKNS_16_Hash_node_valueISB_Lb0EEE, symObjAddr: 0x241C, symBinAddr: 0x100003A7C, symSize: 0x60 }
  - { offset: 0x100F9, size: 0x8, addend: 0x0, symName: __ZNKSt8__detail21_Hashtable_ebo_helperILi1ESt4hashIiELb1EE7_M_cgetEv, symObjAddr: 0x2408, symBinAddr: 0x100003A68, symSize: 0x14 }
  - { offset: 0x10124, size: 0x8, addend: 0x0, symName: __ZSt7forwardIRKSt4pairIKiSt13unordered_mapIiiSt4hashIiESt8equal_toIiESaIS0_IS1_iEEEEEOT_RNSt16remove_referenceISD_E4typeE, symObjAddr: 0x23F4, symBinAddr: 0x100003A54, symSize: 0x14 }
  - { offset: 0x10195, size: 0x8, addend: 0x0, symName: __ZNSt8__detail19_Node_iterator_baseISt4pairIKiSt13unordered_mapIiiSt4hashIiESt8equal_toIiESaIS1_IS2_iEEEELb0EEC2EPNS_10_Hash_nodeISB_Lb0EEE, symObjAddr: 0x23D0, symBinAddr: 0x100003A30, symSize: 0x24 }
  - { offset: 0x101C2, size: 0x8, addend: 0x0, symName: __ZNKSt8equal_toIiEclERKiS2_, symObjAddr: 0x239C, symBinAddr: 0x1000039FC, symSize: 0x34 }
  - { offset: 0x1020E, size: 0x8, addend: 0x0, symName: __ZNKSt8__detail15_Hashtable_baseIiSt4pairIKiSt13unordered_mapIiiSt4hashIiESt8equal_toIiESaIS1_IS2_iEEEENS_10_Select1stES7_S5_NS_18_Mod_range_hashingENS_20_Default_ranged_hashENS_17_Hashtable_traitsILb0ELb0ELb1EEEE5_M_eqEv, symObjAddr: 0x2380, symBinAddr: 0x1000039E0, symSize: 0x1C }
  - { offset: 0x10234, size: 0x8, addend: 0x0, symName: __ZNSt8__detail22_Hashtable_hash_traitsISt4hashIiEE22__small_size_thresholdEv, symObjAddr: 0x2378, symBinAddr: 0x1000039D8, symSize: 0x8 }
  - { offset: 0x102BE, size: 0x8, addend: 0x0, symName: __ZNSt19__ptr_traits_ptr_toIPPNSt8__detail15_Hash_node_baseES2_Lb0EE10pointer_toERS2_, symObjAddr: 0x235C, symBinAddr: 0x1000039BC, symSize: 0x1C }
  - { offset: 0x102EB, size: 0x8, addend: 0x0, symName: __ZNSt8__detail16_Hashtable_allocISaINS_10_Hash_nodeISt4pairIKiSt13unordered_mapIiiSt4hashIiESt8equal_toIiESaIS2_IS3_iEEEELb0EEEEE22_M_deallocate_node_ptrEPSD_, symObjAddr: 0x2304, symBinAddr: 0x100003964, symSize: 0x58 }
  - { offset: 0x10397, size: 0x8, addend: 0x0, symName: __ZNSt8__detail16_Hashtable_allocISaINS_10_Hash_nodeISt4pairIKiSt13unordered_mapIiiSt4hashIiESt8equal_toIiESaIS2_IS3_iEEEELb0EEEEE17_M_node_allocatorEv, symObjAddr: 0x22E8, symBinAddr: 0x100003948, symSize: 0x1C }
  - { offset: 0x103E7, size: 0x8, addend: 0x0, symName: __ZNSt8__detail14_Node_iteratorISt4pairIKiiELb0ELb0EEC1EPNS_10_Hash_nodeIS3_Lb0EEE, symObjAddr: 0x22C0, symBinAddr: 0x100003920, symSize: 0x28 }
  - { offset: 0x10414, size: 0x8, addend: 0x0, symName: __ZNSt10_HashtableIiSt4pairIKiiESaIS2_ENSt8__detail10_Select1stESt8equal_toIiESt4hashIiENS4_18_Mod_range_hashingENS4_20_Default_ranged_hashENS4_20_Prime_rehash_policyENS4_17_Hashtable_traitsILb0ELb0ELb1EEEE22_M_insert_bucket_beginEmPNS4_10_Hash_nodeIS2_Lb0EEE, symObjAddr: 0x21B4, symBinAddr: 0x100003814, symSize: 0x10C }
  - { offset: 0x10460, size: 0x8, addend: 0x0, symName: __ZNKSt8__detail15_Hash_code_baseIiSt4pairIKiiENS_10_Select1stESt4hashIiENS_18_Mod_range_hashingENS_20_Default_ranged_hashELb0EE13_M_store_codeERNS_21_Hash_node_code_cacheILb0EEEm, symObjAddr: 0x2198, symBinAddr: 0x1000037F8, symSize: 0x1C }
  - { offset: 0x1049C, size: 0x8, addend: 0x0, symName: __ZNSt10_HashtableIiSt4pairIKiiESaIS2_ENSt8__detail10_Select1stESt8equal_toIiESt4hashIiENS4_18_Mod_range_hashingENS4_20_Default_ranged_hashENS4_20_Prime_rehash_policyENS4_17_Hashtable_traitsILb0ELb0ELb1EEEE9_M_rehashEmSt17integral_constantIbLb1EE, symObjAddr: 0x202C, symBinAddr: 0x10000368C, symSize: 0x16C }
  - { offset: 0x10549, size: 0x8, addend: 0x0, symName: __ZNSt8__detail16_Hashtable_allocISaINS_10_Hash_nodeISt4pairIKiiELb0EEEEE18_M_deallocate_nodeEPS5_, symObjAddr: 0x1FB8, symBinAddr: 0x100003618, symSize: 0x74 }
  - { offset: 0x105FD, size: 0x8, addend: 0x0, symName: __ZNSt8__detail16_Hashtable_allocISaINS_10_Hash_nodeISt4pairIKiiELb0EEEEE16_M_allocate_nodeIJRKSt21piecewise_construct_tSt5tupleIJRS3_EESC_IJEEEEEPS5_DpOT_, symObjAddr: 0x1DCC, symBinAddr: 0x10000342C, symSize: 0x1EC }
  - { offset: 0x107BB, size: 0x8, addend: 0x0, symName: __ZNSt8__detail10_Hash_nodeISt4pairIKiiELb0EEC1Ev, symObjAddr: 0x1DAC, symBinAddr: 0x10000340C, symSize: 0x20 }
  - { offset: 0x107F5, size: 0x8, addend: 0x0, symName: __ZNKSt10_HashtableIiSt4pairIKiiESaIS2_ENSt8__detail10_Select1stESt8equal_toIiESt4hashIiENS4_18_Mod_range_hashingENS4_20_Default_ranged_hashENS4_20_Prime_rehash_policyENS4_17_Hashtable_traitsILb0ELb0ELb1EEEE19_M_find_before_nodeEmRS1_m, symObjAddr: 0x1CB0, symBinAddr: 0x100003310, symSize: 0xFC }
  - { offset: 0x10887, size: 0x8, addend: 0x0, symName: __ZNKSt8__detail15_Hash_code_baseIiSt4pairIKiiENS_10_Select1stESt4hashIiENS_18_Mod_range_hashingENS_20_Default_ranged_hashELb0EE15_M_bucket_indexEmm, symObjAddr: 0x1C84, symBinAddr: 0x1000032E4, symSize: 0x2C }
  - { offset: 0x108D3, size: 0x8, addend: 0x0, symName: __ZNKSt8__detail15_Hash_code_baseIiSt4pairIKiiENS_10_Select1stESt4hashIiENS_18_Mod_range_hashingENS_20_Default_ranged_hashELb0EE7_M_hashEv, symObjAddr: 0x1C68, symBinAddr: 0x1000032C8, symSize: 0x1C }
  - { offset: 0x10908, size: 0x8, addend: 0x0, symName: __ZNKSt8__detail10_Select1stclIRKSt4pairIKiiEEEONS0_10__1st_typeIT_E4typeEOS8_, symObjAddr: 0x1C48, symBinAddr: 0x1000032A8, symSize: 0x20 }
  - { offset: 0x10960, size: 0x8, addend: 0x0, symName: __ZNKSt10_HashtableIiSt4pairIKiiESaIS2_ENSt8__detail10_Select1stESt8equal_toIiESt4hashIiENS4_18_Mod_range_hashingENS4_20_Default_ranged_hashENS4_20_Prime_rehash_policyENS4_17_Hashtable_traitsILb0ELb0ELb1EEEE3endEv, symObjAddr: 0x1C24, symBinAddr: 0x100003284, symSize: 0x24 }
  - { offset: 0x109B0, size: 0x8, addend: 0x0, symName: __ZNSt8__detail20_Node_const_iteratorISt4pairIKiiELb0ELb0EEC1EPNS_10_Hash_nodeIS3_Lb0EEE, symObjAddr: 0x1BFC, symBinAddr: 0x10000325C, symSize: 0x28 }
  - { offset: 0x109DD, size: 0x8, addend: 0x0, symName: __ZNKSt8__detail15_Hashtable_baseIiSt4pairIKiiENS_10_Select1stESt8equal_toIiESt4hashIiENS_18_Mod_range_hashingENS_20_Default_ranged_hashENS_17_Hashtable_traitsILb0ELb0ELb1EEEE13_M_key_equalsERS2_RKNS_16_Hash_node_valueIS3_Lb0EEE, symObjAddr: 0x1B90, symBinAddr: 0x1000031F0, symSize: 0x6C }
  - { offset: 0x10A6F, size: 0x8, addend: 0x0, symName: __ZNKSt8__detail10_Hash_nodeISt4pairIKiiELb0EE7_M_nextEv, symObjAddr: 0x1B78, symBinAddr: 0x1000031D8, symSize: 0x18 }
  - { offset: 0x10A99, size: 0x8, addend: 0x0, symName: __ZNKSt10_HashtableIiSt4pairIKiiESaIS2_ENSt8__detail10_Select1stESt8equal_toIiESt4hashIiENS4_18_Mod_range_hashingENS4_20_Default_ranged_hashENS4_20_Prime_rehash_policyENS4_17_Hashtable_traitsILb0ELb0ELb1EEEE8_M_beginEv, symObjAddr: 0x1B60, symBinAddr: 0x1000031C0, symSize: 0x18 }
  - { offset: 0x10ABF, size: 0x8, addend: 0x0, symName: __ZNSt10_HashtableIiSt4pairIKiiESaIS2_ENSt8__detail10_Select1stESt8equal_toIiESt4hashIiENS4_18_Mod_range_hashingENS4_20_Default_ranged_hashENS4_20_Prime_rehash_policyENS4_17_Hashtable_traitsILb0ELb0ELb1EEEE22__small_size_thresholdEv, symObjAddr: 0x1B4C, symBinAddr: 0x1000031AC, symSize: 0x14 }
  - { offset: 0x10ADB, size: 0x8, addend: 0x0, symName: __ZNKSt10_HashtableIiSt4pairIKiiESaIS2_ENSt8__detail10_Select1stESt8equal_toIiESt4hashIiENS4_18_Mod_range_hashingENS4_20_Default_ranged_hashENS4_20_Prime_rehash_policyENS4_17_Hashtable_traitsILb0ELb0ELb1EEEE4sizeEv, symObjAddr: 0x1B34, symBinAddr: 0x100003194, symSize: 0x18 }
  - { offset: 0x10B2B, size: 0x8, addend: 0x0, symName: __ZNSt8__detail14_Node_iteratorISt4pairIKiSt13unordered_mapIiiSt4hashIiESt8equal_toIiESaIS1_IS2_iEEEELb0ELb0EEC1EPNS_10_Hash_nodeISB_Lb0EEE, symObjAddr: 0x1B0C, symBinAddr: 0x10000316C, symSize: 0x28 }
  - { offset: 0x10B58, size: 0x8, addend: 0x0, symName: __ZNSt10_HashtableIiSt4pairIKiSt13unordered_mapIiiSt4hashIiESt8equal_toIiESaIS0_IS1_iEEEESaISA_ENSt8__detail10_Select1stES6_S4_NSC_18_Mod_range_hashingENSC_20_Default_ranged_hashENSC_20_Prime_rehash_policyENSC_17_Hashtable_traitsILb0ELb0ELb1EEEE22_M_insert_bucket_beginEmPNSC_10_Hash_nodeISA_Lb0EEE, symObjAddr: 0x1A00, symBinAddr: 0x100003060, symSize: 0x10C }
  - { offset: 0x10BA4, size: 0x8, addend: 0x0, symName: __ZNKSt8__detail15_Hash_code_baseIiSt4pairIKiSt13unordered_mapIiiSt4hashIiESt8equal_toIiESaIS1_IS2_iEEEENS_10_Select1stES5_NS_18_Mod_range_hashingENS_20_Default_ranged_hashELb0EE13_M_store_codeERNS_21_Hash_node_code_cacheILb0EEEm, symObjAddr: 0x19E4, symBinAddr: 0x100003044, symSize: 0x1C }
  - { offset: 0x10BE0, size: 0x8, addend: 0x0, symName: __ZNSt10_HashtableIiSt4pairIKiSt13unordered_mapIiiSt4hashIiESt8equal_toIiESaIS0_IS1_iEEEESaISA_ENSt8__detail10_Select1stES6_S4_NSC_18_Mod_range_hashingENSC_20_Default_ranged_hashENSC_20_Prime_rehash_policyENSC_17_Hashtable_traitsILb0ELb0ELb1EEEE9_M_rehashEmSt17integral_constantIbLb1EE, symObjAddr: 0x1878, symBinAddr: 0x100002ED8, symSize: 0x16C }
  - { offset: 0x10CAE, size: 0x8, addend: 0x0, symName: __ZNSt8__detail17_RehashStateGuardINS_20_Prime_rehash_policyEED1Ev, symObjAddr: 0x1834, symBinAddr: 0x100002E94, symSize: 0x44 }
  - { offset: 0x10CF9, size: 0x8, addend: 0x0, symName: __ZNSt8__detail17_RehashStateGuardINS_20_Prime_rehash_policyEEC1ERS1_, symObjAddr: 0x17F0, symBinAddr: 0x100002E50, symSize: 0x44 }
  - { offset: 0x10D26, size: 0x8, addend: 0x0, symName: __ZNSt8__detail16_Hashtable_allocISaINS_10_Hash_nodeISt4pairIKiSt13unordered_mapIiiSt4hashIiESt8equal_toIiESaIS2_IS3_iEEEELb0EEEEE16_M_allocate_nodeIJRKSt21piecewise_construct_tSt5tupleIJRS3_EESK_IJEEEEEPSD_DpOT_, symObjAddr: 0x1604, symBinAddr: 0x100002C64, symSize: 0x1EC }
  - { offset: 0x10EE4, size: 0x8, addend: 0x0, symName: __ZNSt8__detail10_Hash_nodeISt4pairIKiSt13unordered_mapIiiSt4hashIiESt8equal_toIiESaIS1_IS2_iEEEELb0EEC1Ev, symObjAddr: 0x15E4, symBinAddr: 0x100002C44, symSize: 0x20 }
  - { offset: 0x10F0A, size: 0x8, addend: 0x0, symName: __ZSt7forwardISt5tupleIJEEEOT_RNSt16remove_referenceIS2_E4typeE, symObjAddr: 0x15D0, symBinAddr: 0x100002C30, symSize: 0x14 }
  - { offset: 0x10F41, size: 0x8, addend: 0x0, symName: __ZSt7forwardISt5tupleIJRKiEEEOT_RNSt16remove_referenceIS4_E4typeE, symObjAddr: 0x15BC, symBinAddr: 0x100002C1C, symSize: 0x14 }
  - { offset: 0x10F78, size: 0x8, addend: 0x0, symName: __ZSt7forwardIRKSt21piecewise_construct_tEOT_RNSt16remove_referenceIS3_E4typeE, symObjAddr: 0x15A8, symBinAddr: 0x100002C08, symSize: 0x14 }
  - { offset: 0x10FD4, size: 0x8, addend: 0x0, symName: __ZNSt11_Tuple_implILm0EJRKiEEC2ES1_, symObjAddr: 0x1580, symBinAddr: 0x100002BE0, symSize: 0x28 }
  - { offset: 0x11016, size: 0x8, addend: 0x0, symName: __ZNKSt10_HashtableIiSt4pairIKiSt13unordered_mapIiiSt4hashIiESt8equal_toIiESaIS0_IS1_iEEEESaISA_ENSt8__detail10_Select1stES6_S4_NSC_18_Mod_range_hashingENSC_20_Default_ranged_hashENSC_20_Prime_rehash_policyENSC_17_Hashtable_traitsILb0ELb0ELb1EEEE19_M_find_before_nodeEmRS1_m, symObjAddr: 0x1484, symBinAddr: 0x100002AE4, symSize: 0xFC }
  - { offset: 0x110A8, size: 0x8, addend: 0x0, symName: __ZNKSt8__detail15_Hash_code_baseIiSt4pairIKiSt13unordered_mapIiiSt4hashIiESt8equal_toIiESaIS1_IS2_iEEEENS_10_Select1stES5_NS_18_Mod_range_hashingENS_20_Default_ranged_hashELb0EE15_M_bucket_indexEmm, symObjAddr: 0x1458, symBinAddr: 0x100002AB8, symSize: 0x2C }
  - { offset: 0x110F4, size: 0x8, addend: 0x0, symName: __ZNKSt8__detail15_Hash_code_baseIiSt4pairIKiSt13unordered_mapIiiSt4hashIiESt8equal_toIiESaIS1_IS2_iEEEENS_10_Select1stES5_NS_18_Mod_range_hashingENS_20_Default_ranged_hashELb0EE7_M_hashEv, symObjAddr: 0x143C, symBinAddr: 0x100002A9C, symSize: 0x1C }
  - { offset: 0x1111E, size: 0x8, addend: 0x0, symName: __ZNKSt8__detail10_Select1stclIRKSt4pairIKiSt13unordered_mapIiiSt4hashIiESt8equal_toIiESaIS2_IS3_iEEEEEEONS0_10__1st_typeIT_E4typeEOSG_, symObjAddr: 0x141C, symBinAddr: 0x100002A7C, symSize: 0x20 }
  - { offset: 0x11176, size: 0x8, addend: 0x0, symName: __ZNKSt10_HashtableIiSt4pairIKiSt13unordered_mapIiiSt4hashIiESt8equal_toIiESaIS0_IS1_iEEEESaISA_ENSt8__detail10_Select1stES6_S4_NSC_18_Mod_range_hashingENSC_20_Default_ranged_hashENSC_20_Prime_rehash_policyENSC_17_Hashtable_traitsILb0ELb0ELb1EEEE3endEv, symObjAddr: 0x13F8, symBinAddr: 0x100002A58, symSize: 0x24 }
  - { offset: 0x111C6, size: 0x8, addend: 0x0, symName: __ZNSt8__detail20_Node_const_iteratorISt4pairIKiSt13unordered_mapIiiSt4hashIiESt8equal_toIiESaIS1_IS2_iEEEELb0ELb0EEC1EPNS_10_Hash_nodeISB_Lb0EEE, symObjAddr: 0x13D0, symBinAddr: 0x100002A30, symSize: 0x28 }
  - { offset: 0x111F3, size: 0x8, addend: 0x0, symName: __ZNKSt8__detail15_Hashtable_baseIiSt4pairIKiSt13unordered_mapIiiSt4hashIiESt8equal_toIiESaIS1_IS2_iEEEENS_10_Select1stES7_S5_NS_18_Mod_range_hashingENS_20_Default_ranged_hashENS_17_Hashtable_traitsILb0ELb0ELb1EEEE13_M_key_equalsERS2_RKNS_16_Hash_node_valueISB_Lb0EEE, symObjAddr: 0x1364, symBinAddr: 0x1000029C4, symSize: 0x6C }
  - { offset: 0x11281, size: 0x8, addend: 0x0, symName: __ZNSt10_HashtableIiSt4pairIKiSt13unordered_mapIiiSt4hashIiESt8equal_toIiESaIS0_IS1_iEEEESaISA_ENSt8__detail10_Select1stES6_S4_NSC_18_Mod_range_hashingENSC_20_Default_ranged_hashENSC_20_Prime_rehash_policyENSC_17_Hashtable_traitsILb0ELb0ELb1EEEE22__small_size_thresholdEv, symObjAddr: 0x1350, symBinAddr: 0x1000029B0, symSize: 0x14 }
  - { offset: 0x1129D, size: 0x8, addend: 0x0, symName: __ZNKSt10_HashtableIiSt4pairIKiSt13unordered_mapIiiSt4hashIiESt8equal_toIiESaIS0_IS1_iEEEESaISA_ENSt8__detail10_Select1stES6_S4_NSC_18_Mod_range_hashingENSC_20_Default_ranged_hashENSC_20_Prime_rehash_policyENSC_17_Hashtable_traitsILb0ELb0ELb1EEEE4sizeEv, symObjAddr: 0x1338, symBinAddr: 0x100002998, symSize: 0x18 }
  - { offset: 0x112C7, size: 0x8, addend: 0x0, symName: __ZNSt8__detail16_Hashtable_allocISaINS_10_Hash_nodeISt4pairIKiSt13unordered_mapIiiSt4hashIiESt8equal_toIiESaIS2_IS3_iEEEELb0EEEEE21_M_deallocate_bucketsEPPNS_15_Hash_node_baseEm, symObjAddr: 0x12C0, symBinAddr: 0x100002920, symSize: 0x78 }
  - { offset: 0x113D3, size: 0x8, addend: 0x0, symName: __ZNKSt10_HashtableIiSt4pairIKiSt13unordered_mapIiiSt4hashIiESt8equal_toIiESaIS0_IS1_iEEEESaISA_ENSt8__detail10_Select1stES6_S4_NSC_18_Mod_range_hashingENSC_20_Default_ranged_hashENSC_20_Prime_rehash_policyENSC_17_Hashtable_traitsILb0ELb0ELb1EEEE21_M_uses_single_bucketEPPNSC_15_Hash_node_baseE, symObjAddr: 0x1284, symBinAddr: 0x1000028E4, symSize: 0x3C }
  - { offset: 0x1140E, size: 0x8, addend: 0x0, symName: __ZNSt8__detail16_Hashtable_allocISaINS_10_Hash_nodeISt4pairIKiSt13unordered_mapIiiSt4hashIiESt8equal_toIiESaIS2_IS3_iEEEELb0EEEEE18_M_deallocate_nodeEPSD_, symObjAddr: 0x1208, symBinAddr: 0x100002868, symSize: 0x7C }
  - { offset: 0x114C2, size: 0x8, addend: 0x0, symName: __ZNKSt8__detail10_Hash_nodeISt4pairIKiSt13unordered_mapIiiSt4hashIiESt8equal_toIiESaIS1_IS2_iEEEELb0EE7_M_nextEv, symObjAddr: 0x11F0, symBinAddr: 0x100002850, symSize: 0x18 }
  - { offset: 0x114EC, size: 0x8, addend: 0x0, symName: __ZNKSt8__detail14_Node_iteratorISt4pairIKiiELb0ELb0EEptEv, symObjAddr: 0x11C0, symBinAddr: 0x100002820, symSize: 0x30 }
  - { offset: 0x11539, size: 0x8, addend: 0x0, symName: __ZNSt10_HashtableIiSt4pairIKiiESaIS2_ENSt8__detail10_Select1stESt8equal_toIiESt4hashIiENS4_18_Mod_range_hashingENS4_20_Default_ranged_hashENS4_20_Prime_rehash_policyENS4_17_Hashtable_traitsILb0ELb0ELb1EEEE21_M_insert_unique_nodeEmmPNS4_10_Hash_nodeIS2_Lb0EEEm, symObjAddr: 0x10B0, symBinAddr: 0x100002710, symSize: 0x110 }
  - { offset: 0x115ED, size: 0x8, addend: 0x0, symName: __ZNSt10_HashtableIiSt4pairIKiiESaIS2_ENSt8__detail10_Select1stESt8equal_toIiESt4hashIiENS4_18_Mod_range_hashingENS4_20_Default_ranged_hashENS4_20_Prime_rehash_policyENS4_17_Hashtable_traitsILb0ELb0ELb1EEEE12_Scoped_nodeD1Ev, symObjAddr: 0x106C, symBinAddr: 0x1000026CC, symSize: 0x44 }
  - { offset: 0x11663, size: 0x8, addend: 0x0, symName: __ZNSt10_HashtableIiSt4pairIKiiESaIS2_ENSt8__detail10_Select1stESt8equal_toIiESt4hashIiENS4_18_Mod_range_hashingENS4_20_Default_ranged_hashENS4_20_Prime_rehash_policyENS4_17_Hashtable_traitsILb0ELb0ELb1EEEE12_Scoped_nodeC1IJRKSt21piecewise_construct_tSt5tupleIJRS1_EESL_IJEEEEEPNS4_16_Hashtable_allocISaINS4_10_Hash_nodeIS2_Lb0EEEEEEDpOT_, symObjAddr: 0xFE4, symBinAddr: 0x100002644, symSize: 0x88 }
  - { offset: 0x116D9, size: 0x8, addend: 0x0, symName: __ZNKSt10_HashtableIiSt4pairIKiiESaIS2_ENSt8__detail10_Select1stESt8equal_toIiESt4hashIiENS4_18_Mod_range_hashingENS4_20_Default_ranged_hashENS4_20_Prime_rehash_policyENS4_17_Hashtable_traitsILb0ELb0ELb1EEEE12_M_find_nodeEmRS1_m, symObjAddr: 0xF90, symBinAddr: 0x1000025F0, symSize: 0x54 }
  - { offset: 0x11747, size: 0x8, addend: 0x0, symName: __ZNKSt10_HashtableIiSt4pairIKiiESaIS2_ENSt8__detail10_Select1stESt8equal_toIiESt4hashIiENS4_18_Mod_range_hashingENS4_20_Default_ranged_hashENS4_20_Prime_rehash_policyENS4_17_Hashtable_traitsILb0ELb0ELb1EEEE15_M_bucket_indexEm, symObjAddr: 0xF60, symBinAddr: 0x1000025C0, symSize: 0x30 }
  - { offset: 0x11782, size: 0x8, addend: 0x0, symName: __ZNKSt8__detail15_Hash_code_baseIiSt4pairIKiiENS_10_Select1stESt4hashIiENS_18_Mod_range_hashingENS_20_Default_ranged_hashELb0EE12_M_hash_codeERS2_, symObjAddr: 0xF28, symBinAddr: 0x100002588, symSize: 0x38 }
  - { offset: 0x117BD, size: 0x8, addend: 0x0, symName: __ZNKSt10_HashtableIiSt4pairIKiiESaIS2_ENSt8__detail10_Select1stESt8equal_toIiESt4hashIiENS4_18_Mod_range_hashingENS4_20_Default_ranged_hashENS4_20_Prime_rehash_policyENS4_17_Hashtable_traitsILb0ELb0ELb1EEEE4findERS1_, symObjAddr: 0xE30, symBinAddr: 0x100002490, symSize: 0xF8 }
  - { offset: 0x1183E, size: 0x8, addend: 0x0, symName: __ZNKSt8__detail14_Node_iteratorISt4pairIKiSt13unordered_mapIiiSt4hashIiESt8equal_toIiESaIS1_IS2_iEEEELb0ELb0EEptEv, symObjAddr: 0xE00, symBinAddr: 0x100002460, symSize: 0x30 }
  - { offset: 0x1188B, size: 0x8, addend: 0x0, symName: __ZNSt10_HashtableIiSt4pairIKiSt13unordered_mapIiiSt4hashIiESt8equal_toIiESaIS0_IS1_iEEEESaISA_ENSt8__detail10_Select1stES6_S4_NSC_18_Mod_range_hashingENSC_20_Default_ranged_hashENSC_20_Prime_rehash_policyENSC_17_Hashtable_traitsILb0ELb0ELb1EEEE21_M_insert_unique_nodeEmmPNSC_10_Hash_nodeISA_Lb0EEEm, symObjAddr: 0xCF0, symBinAddr: 0x100002350, symSize: 0x110 }
  - { offset: 0x1193F, size: 0x8, addend: 0x0, symName: __ZNSt10_HashtableIiSt4pairIKiSt13unordered_mapIiiSt4hashIiESt8equal_toIiESaIS0_IS1_iEEEESaISA_ENSt8__detail10_Select1stES6_S4_NSC_18_Mod_range_hashingENSC_20_Default_ranged_hashENSC_20_Prime_rehash_policyENSC_17_Hashtable_traitsILb0ELb0ELb1EEEE12_Scoped_nodeD1Ev, symObjAddr: 0xCAC, symBinAddr: 0x10000230C, symSize: 0x44 }
  - { offset: 0x119B5, size: 0x8, addend: 0x0, symName: __ZNSt10_HashtableIiSt4pairIKiSt13unordered_mapIiiSt4hashIiESt8equal_toIiESaIS0_IS1_iEEEESaISA_ENSt8__detail10_Select1stES6_S4_NSC_18_Mod_range_hashingENSC_20_Default_ranged_hashENSC_20_Prime_rehash_policyENSC_17_Hashtable_traitsILb0ELb0ELb1EEEE12_Scoped_nodeC1IJRKSt21piecewise_construct_tSt5tupleIJRS1_EESP_IJEEEEEPNSC_16_Hashtable_allocISaINSC_10_Hash_nodeISA_Lb0EEEEEEDpOT_, symObjAddr: 0xC24, symBinAddr: 0x100002284, symSize: 0x88 }
  - { offset: 0x11A46, size: 0x8, addend: 0x0, symName: __ZNSt5tupleIJRKiEEC1ILb1ELb1EEES1_, symObjAddr: 0xBFC, symBinAddr: 0x10000225C, symSize: 0x28 }
  - { offset: 0x11A92, size: 0x8, addend: 0x0, symName: __ZNKSt10_HashtableIiSt4pairIKiSt13unordered_mapIiiSt4hashIiESt8equal_toIiESaIS0_IS1_iEEEESaISA_ENSt8__detail10_Select1stES6_S4_NSC_18_Mod_range_hashingENSC_20_Default_ranged_hashENSC_20_Prime_rehash_policyENSC_17_Hashtable_traitsILb0ELb0ELb1EEEE12_M_find_nodeEmRS1_m, symObjAddr: 0xBA8, symBinAddr: 0x100002208, symSize: 0x54 }
  - { offset: 0x11B00, size: 0x8, addend: 0x0, symName: __ZNKSt10_HashtableIiSt4pairIKiSt13unordered_mapIiiSt4hashIiESt8equal_toIiESaIS0_IS1_iEEEESaISA_ENSt8__detail10_Select1stES6_S4_NSC_18_Mod_range_hashingENSC_20_Default_ranged_hashENSC_20_Prime_rehash_policyENSC_17_Hashtable_traitsILb0ELb0ELb1EEEE15_M_bucket_indexEm, symObjAddr: 0xB78, symBinAddr: 0x1000021D8, symSize: 0x30 }
  - { offset: 0x11B3B, size: 0x8, addend: 0x0, symName: __ZNKSt8__detail15_Hash_code_baseIiSt4pairIKiSt13unordered_mapIiiSt4hashIiESt8equal_toIiESaIS1_IS2_iEEEENS_10_Select1stES5_NS_18_Mod_range_hashingENS_20_Default_ranged_hashELb0EE12_M_hash_codeERS2_, symObjAddr: 0xB40, symBinAddr: 0x1000021A0, symSize: 0x38 }
  - { offset: 0x11B76, size: 0x8, addend: 0x0, symName: __ZNKSt10_HashtableIiSt4pairIKiSt13unordered_mapIiiSt4hashIiESt8equal_toIiESaIS0_IS1_iEEEESaISA_ENSt8__detail10_Select1stES6_S4_NSC_18_Mod_range_hashingENSC_20_Default_ranged_hashENSC_20_Prime_rehash_policyENSC_17_Hashtable_traitsILb0ELb0ELb1EEEE4findERS1_, symObjAddr: 0xA48, symBinAddr: 0x1000020A8, symSize: 0xF8 }
  - { offset: 0x11BF7, size: 0x8, addend: 0x0, symName: __ZNSt10_HashtableIiSt4pairIKiSt13unordered_mapIiiSt4hashIiESt8equal_toIiESaIS0_IS1_iEEEESaISA_ENSt8__detail10_Select1stES6_S4_NSC_18_Mod_range_hashingENSC_20_Default_ranged_hashENSC_20_Prime_rehash_policyENSC_17_Hashtable_traitsILb0ELb0ELb1EEEE21_M_deallocate_bucketsEPPNSC_15_Hash_node_baseEm, symObjAddr: 0x9FC, symBinAddr: 0x10000205C, symSize: 0x4C }
  - { offset: 0x11C43, size: 0x8, addend: 0x0, symName: __ZNSt8__detail16_Hashtable_allocISaINS_10_Hash_nodeISt4pairIKiSt13unordered_mapIiiSt4hashIiESt8equal_toIiESaIS2_IS3_iEEEELb0EEEEE19_M_deallocate_nodesEPSD_, symObjAddr: 0x9AC, symBinAddr: 0x10000200C, symSize: 0x50 }
  - { offset: 0x11CA2, size: 0x8, addend: 0x0, symName: __ZNKSt10_HashtableIiSt4pairIKiSt13unordered_mapIiiSt4hashIiESt8equal_toIiESaIS0_IS1_iEEEESaISA_ENSt8__detail10_Select1stES6_S4_NSC_18_Mod_range_hashingENSC_20_Default_ranged_hashENSC_20_Prime_rehash_policyENSC_17_Hashtable_traitsILb0ELb0ELb1EEEE8_M_beginEv, symObjAddr: 0x994, symBinAddr: 0x100001FF4, symSize: 0x18 }
  - { offset: 0x11CE1, size: 0x8, addend: 0x0, symName: __ZNSt8__detail9_Map_baseIiSt4pairIKiiESaIS3_ENS_10_Select1stESt8equal_toIiESt4hashIiENS_18_Mod_range_hashingENS_20_Default_ranged_hashENS_20_Prime_rehash_policyENS_17_Hashtable_traitsILb0ELb0ELb1EEELb1EEixERS2_, symObjAddr: 0x874, symBinAddr: 0x100001ED4, symSize: 0x120 }
  - { offset: 0x11DE5, size: 0x8, addend: 0x0, symName: __ZNKSt10_HashtableIiSt4pairIKiiESaIS2_ENSt8__detail10_Select1stESt8equal_toIiESt4hashIiENS4_18_Mod_range_hashingENS4_20_Default_ranged_hashENS4_20_Prime_rehash_policyENS4_17_Hashtable_traitsILb0ELb0ELb1EEEE5countERS1_, symObjAddr: 0x834, symBinAddr: 0x100001E94, symSize: 0x40 }
  - { offset: 0x11E50, size: 0x8, addend: 0x0, symName: __ZNSt8__detail9_Map_baseIiSt4pairIKiSt13unordered_mapIiiSt4hashIiESt8equal_toIiESaIS1_IS2_iEEEESaISB_ENS_10_Select1stES7_S5_NS_18_Mod_range_hashingENS_20_Default_ranged_hashENS_20_Prime_rehash_policyENS_17_Hashtable_traitsILb0ELb0ELb1EEELb1EEixERS2_, symObjAddr: 0x714, symBinAddr: 0x100001D74, symSize: 0x120 }
  - { offset: 0x11F54, size: 0x8, addend: 0x0, symName: __ZNKSt10_HashtableIiSt4pairIKiSt13unordered_mapIiiSt4hashIiESt8equal_toIiESaIS0_IS1_iEEEESaISA_ENSt8__detail10_Select1stES6_S4_NSC_18_Mod_range_hashingENSC_20_Default_ranged_hashENSC_20_Prime_rehash_policyENSC_17_Hashtable_traitsILb0ELb0ELb1EEEE5countERS1_, symObjAddr: 0x6D4, symBinAddr: 0x100001D34, symSize: 0x40 }
  - { offset: 0x11FBF, size: 0x8, addend: 0x0, symName: __ZNSt10_HashtableIiSt4pairIKiSt13unordered_mapIiiSt4hashIiESt8equal_toIiESaIS0_IS1_iEEEESaISA_ENSt8__detail10_Select1stES6_S4_NSC_18_Mod_range_hashingENSC_20_Default_ranged_hashENSC_20_Prime_rehash_policyENSC_17_Hashtable_traitsILb0ELb0ELb1EEEE21_M_deallocate_bucketsEv, symObjAddr: 0x6A0, symBinAddr: 0x100001D00, symSize: 0x34 }
  - { offset: 0x11FE9, size: 0x8, addend: 0x0, symName: __ZNSt10_HashtableIiSt4pairIKiSt13unordered_mapIiiSt4hashIiESt8equal_toIiESaIS0_IS1_iEEEESaISA_ENSt8__detail10_Select1stES6_S4_NSC_18_Mod_range_hashingENSC_20_Default_ranged_hashENSC_20_Prime_rehash_policyENSC_17_Hashtable_traitsILb0ELb0ELb1EEEE5clearEv, symObjAddr: 0x640, symBinAddr: 0x100001CA0, symSize: 0x60 }
  - { offset: 0x12034, size: 0x8, addend: 0x0, symName: __ZNSt15__new_allocatorINSt8__detail10_Hash_nodeISt4pairIKiSt13unordered_mapIiiSt4hashIiESt8equal_toIiESaIS2_IS3_iEEEELb0EEEED2Ev, symObjAddr: 0x62C, symBinAddr: 0x100001C8C, symSize: 0x14 }
  - { offset: 0x1206E, size: 0x8, addend: 0x0, symName: __ZNSt13unordered_mapIiiSt4hashIiESt8equal_toIiESaISt4pairIKiiEEEixERS5_, symObjAddr: 0x608, symBinAddr: 0x100001C68, symSize: 0x24 }
  - { offset: 0x120A9, size: 0x8, addend: 0x0, symName: __ZNKSt13unordered_mapIiiSt4hashIiESt8equal_toIiESaISt4pairIKiiEEE5countERS5_, symObjAddr: 0x5E4, symBinAddr: 0x100001C44, symSize: 0x24 }
  - { offset: 0x120E4, size: 0x8, addend: 0x0, symName: __ZNSt13unordered_mapIiS_IiiSt4hashIiESt8equal_toIiESaISt4pairIKiiEEES1_S3_SaIS4_IS5_S8_EEEixERS5_, symObjAddr: 0x5C0, symBinAddr: 0x100001C20, symSize: 0x24 }
  - { offset: 0x1211F, size: 0x8, addend: 0x0, symName: __ZNKSt13unordered_mapIiS_IiiSt4hashIiESt8equal_toIiESaISt4pairIKiiEEES1_S3_SaIS4_IS5_S8_EEE5countERS5_, symObjAddr: 0x59C, symBinAddr: 0x100001BFC, symSize: 0x24 }
  - { offset: 0x1217B, size: 0x8, addend: 0x0, symName: __ZNSt10_HashtableIiSt4pairIKiSt13unordered_mapIiiSt4hashIiESt8equal_toIiESaIS0_IS1_iEEEESaISA_ENSt8__detail10_Select1stES6_S4_NSC_18_Mod_range_hashingENSC_20_Default_ranged_hashENSC_20_Prime_rehash_policyENSC_17_Hashtable_traitsILb0ELb0ELb1EEEED1Ev, symObjAddr: 0x56C, symBinAddr: 0x100001BCC, symSize: 0x30 }
  - { offset: 0x121D6, size: 0x8, addend: 0x0, symName: __ZNSt8__detail21_Hashtable_ebo_helperILi0ESaINS_10_Hash_nodeISt4pairIKiSt13unordered_mapIiiSt4hashIiESt8equal_toIiESaIS2_IS3_iEEEELb0EEEELb1EEC2Ev, symObjAddr: 0x540, symBinAddr: 0x100001BA0, symSize: 0x2C }
  - { offset: 0x12258, size: 0x8, addend: 0x0, symName: __ZNSt8__detail21_Hashtable_ebo_helperILi0ESt8equal_toIiELb1EEC2Ev, symObjAddr: 0x52C, symBinAddr: 0x100001B8C, symSize: 0x14 }
  - { offset: 0x12295, size: 0x8, addend: 0x0, symName: __ZNSt8__detail21_Hashtable_ebo_helperILi1ESt4hashIiELb1EEC2Ev, symObjAddr: 0x518, symBinAddr: 0x100001B78, symSize: 0x14 }
  - { offset: 0x122BD, size: 0x8, addend: 0x0, symName: _main, symObjAddr: 0x48C, symBinAddr: 0x100001AEC, symSize: 0x8C }
  - { offset: 0x122E0, size: 0x8, addend: 0x0, symName: __Z2dpii, symObjAddr: 0x25C, symBinAddr: 0x1000018BC, symSize: 0x230 }
  - { offset: 0x12368, size: 0x8, addend: 0x0, symName: __ZNSt13unordered_mapIiS_IiiSt4hashIiESt8equal_toIiESaISt4pairIKiiEEES1_S3_SaIS4_IS5_S8_EEEC1Ev, symObjAddr: 0x23C, symBinAddr: 0x10000189C, symSize: 0x20 }
  - { offset: 0x123A5, size: 0x8, addend: 0x0, symName: __ZNSt10_HashtableIiSt4pairIKiSt13unordered_mapIiiSt4hashIiESt8equal_toIiESaIS0_IS1_iEEEESaISA_ENSt8__detail10_Select1stES6_S4_NSC_18_Mod_range_hashingENSC_20_Default_ranged_hashENSC_20_Prime_rehash_policyENSC_17_Hashtable_traitsILb0ELb0ELb1EEEEC1Ev, symObjAddr: 0x1CC, symBinAddr: 0x10000182C, symSize: 0x70 }
  - { offset: 0x123EF, size: 0x8, addend: 0x0, symName: __ZNSt8__detail16_Hashtable_allocISaINS_10_Hash_nodeISt4pairIKiSt13unordered_mapIiiSt4hashIiESt8equal_toIiESaIS2_IS3_iEEEELb0EEEEED2Ev, symObjAddr: 0x1AC, symBinAddr: 0x10000180C, symSize: 0x20 }
  - { offset: 0x1242C, size: 0x8, addend: 0x0, symName: __ZNSt8__detail16_Hashtable_allocISaINS_10_Hash_nodeISt4pairIKiSt13unordered_mapIiiSt4hashIiESt8equal_toIiESaIS2_IS3_iEEEELb0EEEEEC2Ev, symObjAddr: 0x18C, symBinAddr: 0x1000017EC, symSize: 0x20 }
  - { offset: 0x12476, size: 0x8, addend: 0x0, symName: __ZNSt8__detail21_Hashtable_ebo_helperILi0ESaINS_10_Hash_nodeISt4pairIKiSt13unordered_mapIiiSt4hashIiESt8equal_toIiESaIS2_IS3_iEEEELb0EEEELb1EED2Ev, symObjAddr: 0x160, symBinAddr: 0x1000017C0, symSize: 0x2C }
  - { offset: 0x124D6, size: 0x8, addend: 0x0, symName: __ZNSt8__detail15_Hashtable_baseIiSt4pairIKiSt13unordered_mapIiiSt4hashIiESt8equal_toIiESaIS1_IS2_iEEEENS_10_Select1stES7_S5_NS_18_Mod_range_hashingENS_20_Default_ranged_hashENS_17_Hashtable_traitsILb0ELb0ELb1EEEEC2Ev, symObjAddr: 0x138, symBinAddr: 0x100001798, symSize: 0x28 }
  - { offset: 0x12513, size: 0x8, addend: 0x0, symName: __ZNSt8__detail15_Hash_code_baseIiSt4pairIKiSt13unordered_mapIiiSt4hashIiESt8equal_toIiESaIS1_IS2_iEEEENS_10_Select1stES5_NS_18_Mod_range_hashingENS_20_Default_ranged_hashELb0EEC2Ev, symObjAddr: 0x118, symBinAddr: 0x100001778, symSize: 0x20 }
  - { offset: 0x12538, size: 0x8, addend: 0x0, symName: __ZNSt8__detail20_Prime_rehash_policy8_M_resetEm, symObjAddr: 0xF4, symBinAddr: 0x100001754, symSize: 0x24 }
  - { offset: 0x12573, size: 0x8, addend: 0x0, symName: __ZNKSt8__detail20_Prime_rehash_policy8_M_stateEv, symObjAddr: 0xDC, symBinAddr: 0x10000173C, symSize: 0x18 }
  - { offset: 0x125C3, size: 0x8, addend: 0x0, symName: __ZNSt8__detail20_Prime_rehash_policyC1Ef, symObjAddr: 0xB0, symBinAddr: 0x100001710, symSize: 0x2C }
  - { offset: 0x125F0, size: 0x8, addend: 0x0, symName: __ZNKSt8__detail18_Mod_range_hashingclEmm, symObjAddr: 0x80, symBinAddr: 0x1000016E0, symSize: 0x30 }
  - { offset: 0x12654, size: 0x8, addend: 0x0, symName: __ZNSt8__detail15_Hash_node_baseC1Ev, symObjAddr: 0x64, symBinAddr: 0x1000016C4, symSize: 0x1C }
  - { offset: 0x1267C, size: 0x8, addend: 0x0, symName: __ZNSt8__detail15_Hash_node_baseC2Ev, symObjAddr: 0x48, symBinAddr: 0x1000016A8, symSize: 0x1C }
  - { offset: 0x126A1, size: 0x8, addend: 0x0, symName: __ZNKSt4hashIiEclEi, symObjAddr: 0x30, symBinAddr: 0x100001690, symSize: 0x18 }
  - { offset: 0x126DE, size: 0x8, addend: 0x0, symName: __ZdlPvS_, symObjAddr: 0x18, symBinAddr: 0x100001678, symSize: 0x18 }
  - { offset: 0x12714, size: 0x8, addend: 0x0, symName: __ZnwmPv, symObjAddr: 0x0, symBinAddr: 0x100001660, symSize: 0x18 }
...
