---
triple:          'arm64-apple-darwin'
binary-path:     '/Users/perusonari/Documents/GitHub/ps/2025-02-14/build/9461'
relocations:
  - { offset: 0xAD72, size: 0x8, addend: 0x0, symName: __ZStL8__ioinit, symObjAddr: 0x578DB, symBinAddr: 0x10000C000, symSize: 0x0 }
  - { offset: 0xB6CB, size: 0x8, addend: 0x0, symName: _cache, symObjAddr: 0x578E0, symBinAddr: 0x10000C008, symSize: 0x0 }
  - { offset: 0xBA26, size: 0x8, addend: 0x0, symName: __ZNSt13unordered_mapIilSt4hashIiESt8equal_toIiESaISt4pairIKilEEED1Ev, symObjAddr: 0x28D8, symBinAddr: 0x100005308, symSize: 0x20 }
  - { offset: 0xBA96, size: 0x8, addend: 0x0, symName: __ZNSt4pairIKilEC1IS0_lLb1EEERS0_RKl, symObjAddr: 0x289C, symBinAddr: 0x1000052CC, symSize: 0x3C }
  - { offset: 0xBB23, size: 0x8, addend: 0x0, symName: __ZNSt10_Head_baseILm0ERKiLb0EE7_M_headERS2_, symObjAddr: 0x2884, symBinAddr: 0x1000052B4, symSize: 0x18 }
  - { offset: 0xBB9A, size: 0x8, addend: 0x0, symName: __ZNSt11_Tuple_implILm0EJRKiEE7_M_headERS2_, symObjAddr: 0x2868, symBinAddr: 0x100005298, symSize: 0x1C }
  - { offset: 0xBBC8, size: 0x8, addend: 0x0, symName: __ZNSt8__detail16_Hashtable_allocISaINS_10_Hash_nodeISt4pairIKilELb0EEEEE16_M_allocate_nodeIJRS3_RKlEEEPS5_DpOT_, symObjAddr: 0x2734, symBinAddr: 0x100005164, symSize: 0x134 }
  - { offset: 0xBD1D, size: 0x8, addend: 0x0, symName: __ZSt7forwardIRKlEOT_RNSt16remove_referenceIS2_E4typeE, symObjAddr: 0x2720, symBinAddr: 0x100005150, symSize: 0x14 }
  - { offset: 0xBD53, size: 0x8, addend: 0x0, symName: __ZNKSt8__detail15_Hashtable_baseIiSt4pairIKilENS_10_Select1stESt8equal_toIiESt4hashIiENS_18_Mod_range_hashingENS_20_Default_ranged_hashENS_17_Hashtable_traitsILb0ELb0ELb1EEEE12_M_equals_trIiEEbRKT_mRKNS_16_Hash_node_valueIS3_Lb0EEE, symObjAddr: 0x26C0, symBinAddr: 0x1000050F0, symSize: 0x60 }
  - { offset: 0xBDB5, size: 0x8, addend: 0x0, symName: __ZSt12__get_helperILm0ERKiJEERT0_RSt11_Tuple_implIXT_EJS2_DpT1_EE, symObjAddr: 0x26A4, symBinAddr: 0x1000050D4, symSize: 0x1C }
  - { offset: 0xBDFD, size: 0x8, addend: 0x0, symName: __ZSt7forwardIRNSt8__detail14_Node_iteratorISt4pairIKilELb0ELb0EEEEOT_RNSt16remove_referenceIS7_E4typeE, symObjAddr: 0x2690, symBinAddr: 0x1000050C0, symSize: 0x14 }
  - { offset: 0xBE3E, size: 0x8, addend: 0x0, symName: __ZNKSt8__detail10_AllocNodeISaINS_10_Hash_nodeISt4pairIKilELb0EEEEEclIJRS3_RKlEEEPS5_DpOT_, symObjAddr: 0x2640, symBinAddr: 0x100005070, symSize: 0x50 }
  - { offset: 0xBE90, size: 0x8, addend: 0x0, symName: __ZNKSt10_HashtableIiSt4pairIKilESaIS2_ENSt8__detail10_Select1stESt8equal_toIiESt4hashIiENS4_18_Mod_range_hashingENS4_20_Default_ranged_hashENS4_20_Prime_rehash_policyENS4_17_Hashtable_traitsILb0ELb0ELb1EEEE22_M_find_before_node_trIiEEPNS4_15_Hash_node_baseEmRKT_m, symObjAddr: 0x2544, symBinAddr: 0x100004F74, symSize: 0xFC }
  - { offset: 0xBF2D, size: 0x8, addend: 0x0, symName: __ZSt7forwardINSt8__detail14_Node_iteratorISt4pairIKilELb0ELb0EEEEOT_RNSt16remove_referenceIS6_E4typeE, symObjAddr: 0x2530, symBinAddr: 0x100004F60, symSize: 0x14 }
  - { offset: 0xBF5F, size: 0x8, addend: 0x0, symName: __ZSt3getILm0EJRKiEERNSt13tuple_elementIXT_ESt5tupleIJDpT0_EEE4typeERS6_, symObjAddr: 0x2514, symBinAddr: 0x100004F44, symSize: 0x1C }
  - { offset: 0xBFE7, size: 0x8, addend: 0x0, symName: __ZNSt4pairINSt8__detail14_Node_iteratorIS_IKilELb0ELb0EEEbEC1IRS4_bLb1EEEOT_OT0_, symObjAddr: 0x24C8, symBinAddr: 0x100004EF8, symSize: 0x4C }
  - { offset: 0xC061, size: 0x8, addend: 0x0, symName: __ZNSt10_HashtableIiSt4pairIKilESaIS2_ENSt8__detail10_Select1stESt8equal_toIiESt4hashIiENS4_18_Mod_range_hashingENS4_20_Default_ranged_hashENS4_20_Prime_rehash_policyENS4_17_Hashtable_traitsILb0ELb0ELb1EEEE12_Scoped_nodeC1EPNS4_10_Hash_nodeIS2_Lb0EEEPNS4_16_Hashtable_allocISaISI_EEE, symObjAddr: 0x2494, symBinAddr: 0x100004EC4, symSize: 0x34 }
  - { offset: 0xC098, size: 0x8, addend: 0x0, symName: __ZNSt8__detail12_NodeBuilderINS_10_Select1stEE8_S_buildIRKiRKSt4pairIS4_lENS_10_AllocNodeISaINS_10_Hash_nodeIS7_Lb0EEEEEEEENT1_10__node_ptrEOT_OT0_RKSF_, symObjAddr: 0x2448, symBinAddr: 0x100004E78, symSize: 0x4C }
  - { offset: 0xC102, size: 0x8, addend: 0x0, symName: __ZSt7forwardIRKiEOT_RNSt16remove_referenceIS2_E4typeE, symObjAddr: 0x2434, symBinAddr: 0x100004E64, symSize: 0x14 }
  - { offset: 0xC138, size: 0x8, addend: 0x0, symName: __ZNKSt10_HashtableIiSt4pairIKilESaIS2_ENSt8__detail10_Select1stESt8equal_toIiESt4hashIiENS4_18_Mod_range_hashingENS4_20_Default_ranged_hashENS4_20_Prime_rehash_policyENS4_17_Hashtable_traitsILb0ELb0ELb1EEEE15_M_find_node_trIiEEPNS4_10_Hash_nodeIS2_Lb0EEEmRKT_m, symObjAddr: 0x23E0, symBinAddr: 0x100004E10, symSize: 0x54 }
  - { offset: 0xC1AF, size: 0x8, addend: 0x0, symName: __ZNKSt8__detail15_Hash_code_baseIiSt4pairIKilENS_10_Select1stESt4hashIiENS_18_Mod_range_hashingENS_20_Default_ranged_hashELb0EE15_M_hash_code_trIiEEmRKT_, symObjAddr: 0x23A8, symBinAddr: 0x100004DD8, symSize: 0x38 }
  - { offset: 0xC238, size: 0x8, addend: 0x0, symName: __ZNSt4pairINSt8__detail14_Node_iteratorIS_IKilELb0ELb0EEEbEC1IS4_bLb1EEEOT_OT0_, symObjAddr: 0x235C, symBinAddr: 0x100004D8C, symSize: 0x4C }
  - { offset: 0xC27F, size: 0x8, addend: 0x0, symName: __ZNKSt8__detail15_Hashtable_baseIiSt4pairIKilENS_10_Select1stESt8equal_toIiESt4hashIiENS_18_Mod_range_hashingENS_20_Default_ranged_hashENS_17_Hashtable_traitsILb0ELb0ELb1EEEE16_M_key_equals_trIiEEbRKT_RKNS_16_Hash_node_valueIS3_Lb0EEE, symObjAddr: 0x22F0, symBinAddr: 0x100004D20, symSize: 0x6C }
  - { offset: 0xC335, size: 0x8, addend: 0x0, symName: __ZSt7forwardIRKSt4hashIiEEOT_RNSt16remove_referenceIS4_E4typeE, symObjAddr: 0x22DC, symBinAddr: 0x100004D0C, symSize: 0x14 }
  - { offset: 0xC367, size: 0x8, addend: 0x0, symName: __ZSt11__addressofINSt8__detail10_Hash_nodeISt4pairIKilELb0EEEEPT_RS6_, symObjAddr: 0x22C8, symBinAddr: 0x100004CF8, symSize: 0x14 }
  - { offset: 0xC403, size: 0x8, addend: 0x0, symName: __ZNSt4pairIKilEC1IJRS0_EJLm0EEJEJEEERSt5tupleIJDpT_EERS4_IJDpT1_EESt12_Index_tupleIJXspT0_EEESD_IJXspT2_EEE, symObjAddr: 0x2280, symBinAddr: 0x100004CB0, symSize: 0x48 }
  - { offset: 0xC46D, size: 0x8, addend: 0x0, symName: __ZSt11__addressofIPNSt8__detail15_Hash_node_baseEEPT_RS3_, symObjAddr: 0x226C, symBinAddr: 0x100004C9C, symSize: 0x14 }
  - { offset: 0xC4A3, size: 0x8, addend: 0x0, symName: __ZNSt10_HashtableIiSt4pairIKilESaIS2_ENSt8__detail10_Select1stESt8equal_toIiESt4hashIiENS4_18_Mod_range_hashingENS4_20_Default_ranged_hashENS4_20_Prime_rehash_policyENS4_17_Hashtable_traitsILb0ELb0ELb1EEEE16_M_insert_uniqueIRS1_RKS2_NS4_10_AllocNodeISaINS4_10_Hash_nodeIS2_Lb0EEEEEEEES0_INS4_14_Node_iteratorIS2_Lb0ELb0EEEbEOT_OT0_RKT1_, symObjAddr: 0x206C, symBinAddr: 0x100004A9C, symSize: 0x200 }
  - { offset: 0xC5BA, size: 0x8, addend: 0x0, symName: __ZNSt10_HashtableIiSt4pairIKilESaIS2_ENSt8__detail10_Select1stESt8equal_toIiESt4hashIiENS4_18_Mod_range_hashingENS4_20_Default_ranged_hashENS4_20_Prime_rehash_policyENS4_17_Hashtable_traitsILb0ELb0ELb1EEEE14_S_forward_keyERS1_, symObjAddr: 0x2058, symBinAddr: 0x100004A88, symSize: 0x14 }
  - { offset: 0xC5E8, size: 0x8, addend: 0x0, symName: __ZNSt15__new_allocatorIPNSt8__detail15_Hash_node_baseEE8allocateEmPKv, symObjAddr: 0x1FDC, symBinAddr: 0x100004A0C, symSize: 0x7C }
  - { offset: 0xC694, size: 0x8, addend: 0x0, symName: __ZSt7forwardIRKSt8equal_toIiEEOT_RNSt16remove_referenceIS4_E4typeE, symObjAddr: 0x1FC8, symBinAddr: 0x1000049F8, symSize: 0x14 }
  - { offset: 0xC6F8, size: 0x8, addend: 0x0, symName: __ZNSt8__detail21_Hashtable_ebo_helperILi1ESt4hashIiELb1EEC2IRKS2_EEOT_, symObjAddr: 0x1FA4, symBinAddr: 0x1000049D4, symSize: 0x24 }
  - { offset: 0xC72A, size: 0x8, addend: 0x0, symName: __ZSt9addressofINSt8__detail10_Hash_nodeISt4pairIKilELb0EEEEPT_RS6_, symObjAddr: 0x1F88, symBinAddr: 0x1000049B8, symSize: 0x1C }
  - { offset: 0xC7A8, size: 0x8, addend: 0x0, symName: __ZNSt4pairIKilEC1IJRS0_EJEEESt21piecewise_construct_tSt5tupleIJDpT_EES5_IJDpT0_EE, symObjAddr: 0x1F4C, symBinAddr: 0x10000497C, symSize: 0x3C }
  - { offset: 0xC81B, size: 0x8, addend: 0x0, symName: __ZNSt11_Tuple_implILm0EJRKiEEC2EOS2_, symObjAddr: 0x1F24, symBinAddr: 0x100004954, symSize: 0x28 }
  - { offset: 0xC84C, size: 0x8, addend: 0x0, symName: __ZNK9__gnu_cxx16__aligned_bufferISt4pairIKilEE7_M_addrEv, symObjAddr: 0x1F10, symBinAddr: 0x100004940, symSize: 0x14 }
  - { offset: 0xC876, size: 0x8, addend: 0x0, symName: __ZNSt15__new_allocatorIPNSt8__detail15_Hash_node_baseEE10deallocateEPS2_m, symObjAddr: 0x1EE0, symBinAddr: 0x100004910, symSize: 0x30 }
  - { offset: 0xC8E0, size: 0x8, addend: 0x0, symName: __ZNSt15__new_allocatorIPNSt8__detail15_Hash_node_baseEED2Ev, symObjAddr: 0x1ECC, symBinAddr: 0x1000048FC, symSize: 0x14 }
  - { offset: 0xC915, size: 0x8, addend: 0x0, symName: __ZSt9addressofIPNSt8__detail15_Hash_node_baseEEPT_RS3_, symObjAddr: 0x1EB0, symBinAddr: 0x1000048E0, symSize: 0x1C }
  - { offset: 0xC94B, size: 0x8, addend: 0x0, symName: __ZNSt10_HashtableIiSt4pairIKilESaIS2_ENSt8__detail10_Select1stESt8equal_toIiESt4hashIiENS4_18_Mod_range_hashingENS4_20_Default_ranged_hashENS4_20_Prime_rehash_policyENS4_17_Hashtable_traitsILb0ELb0ELb1EEEE20_M_insert_unique_auxIRKS2_NS4_10_AllocNodeISaINS4_10_Hash_nodeIS2_Lb0EEEEEEEES0_INS4_14_Node_iteratorIS2_Lb0ELb0EEEbEOT_RKT0_, symObjAddr: 0x1E54, symBinAddr: 0x100004884, symSize: 0x5C }
  - { offset: 0xC9A9, size: 0x8, addend: 0x0, symName: __ZNKSt8__detail19_ConvertToValueTypeINS_10_Select1stESt4pairIKilEEclERKS4_, symObjAddr: 0x1E3C, symBinAddr: 0x10000486C, symSize: 0x18 }
  - { offset: 0xC9DF, size: 0x8, addend: 0x0, symName: __ZSt12__to_addressIPNSt8__detail15_Hash_node_baseEEPT_S4_, symObjAddr: 0x1E28, symBinAddr: 0x100004858, symSize: 0x14 }
  - { offset: 0xCA6D, size: 0x8, addend: 0x0, symName: __ZNSt8__detail21_Hashtable_ebo_helperILi0ESaINS_10_Hash_nodeISt4pairIKilELb0EEEELb1EEC2IS6_EEOT_, symObjAddr: 0x1DDC, symBinAddr: 0x10000480C, symSize: 0x4C }
  - { offset: 0xCAFA, size: 0x8, addend: 0x0, symName: __ZSt7forwardISaINSt8__detail10_Hash_nodeISt4pairIKilELb0EEEEEOT_RNSt16remove_referenceIS7_E4typeE, symObjAddr: 0x1DC8, symBinAddr: 0x1000047F8, symSize: 0x14 }
  - { offset: 0xCB5E, size: 0x8, addend: 0x0, symName: __ZNSt8__detail21_Hashtable_ebo_helperILi0ESt8equal_toIiELb1EEC2IRKS2_EEOT_, symObjAddr: 0x1DA4, symBinAddr: 0x1000047D4, symSize: 0x24 }
  - { offset: 0xCBB9, size: 0x8, addend: 0x0, symName: __ZNSt8__detail15_Hash_code_baseIiSt4pairIKilENS_10_Select1stESt4hashIiENS_18_Mod_range_hashingENS_20_Default_ranged_hashELb0EEC2ERKS6_, symObjAddr: 0x1D7C, symBinAddr: 0x1000047AC, symSize: 0x28 }
  - { offset: 0xCBF6, size: 0x8, addend: 0x0, symName: __ZNSt19__ptr_traits_ptr_toIPNSt8__detail10_Hash_nodeISt4pairIKilELb0EEES5_Lb0EE10pointer_toERS5_, symObjAddr: 0x1D60, symBinAddr: 0x100004790, symSize: 0x1C }
  - { offset: 0xCC4D, size: 0x8, addend: 0x0, symName: __ZNSt15__new_allocatorINSt8__detail10_Hash_nodeISt4pairIKilELb0EEEE10deallocateEPS5_m, symObjAddr: 0x1D24, symBinAddr: 0x100004754, symSize: 0x3C }
  - { offset: 0xCD13, size: 0x8, addend: 0x0, symName: __ZNSt5tupleIJRKiEEC1EOS2_, symObjAddr: 0x1CFC, symBinAddr: 0x10000472C, symSize: 0x28 }
  - { offset: 0xCD40, size: 0x8, addend: 0x0, symName: __ZNSt15__new_allocatorINSt8__detail10_Hash_nodeISt4pairIKilELb0EEEE8allocateEmPKv, symObjAddr: 0x1C6C, symBinAddr: 0x10000469C, symSize: 0x90 }
  - { offset: 0xCDC9, size: 0x8, addend: 0x0, symName: __ZNSt8__detail21_Hashtable_ebo_helperILi0ESaINS_10_Hash_nodeISt4pairIKilELb0EEEELb1EE6_M_getEv, symObjAddr: 0x1C58, symBinAddr: 0x100004688, symSize: 0x14 }
  - { offset: 0xCDF7, size: 0x8, addend: 0x0, symName: __ZN9__gnu_cxx16__aligned_bufferISt4pairIKilEE7_M_addrEv, symObjAddr: 0x1C44, symBinAddr: 0x100004674, symSize: 0x14 }
  - { offset: 0xCE1D, size: 0x8, addend: 0x0, symName: __ZNSt8__detail15_Hashtable_baseIiSt4pairIKilENS_10_Select1stESt8equal_toIiESt4hashIiENS_18_Mod_range_hashingENS_20_Default_ranged_hashENS_17_Hashtable_traitsILb0ELb0ELb1EEEE9_S_equalsEmRKNS_21_Hash_node_code_cacheILb0EEE, symObjAddr: 0x1C2C, symBinAddr: 0x10000465C, symSize: 0x18 }
  - { offset: 0xCE4C, size: 0x8, addend: 0x0, symName: __ZNK9__gnu_cxx16__aligned_bufferISt4pairIKilEE6_M_ptrEv, symObjAddr: 0x1C10, symBinAddr: 0x100004640, symSize: 0x1C }
  - { offset: 0xCE76, size: 0x8, addend: 0x0, symName: __ZNKSt8__detail21_Hashtable_ebo_helperILi0ESt8equal_toIiELb1EE7_M_cgetEv, symObjAddr: 0x1BFC, symBinAddr: 0x10000462C, symSize: 0x14 }
  - { offset: 0xCF0D, size: 0x8, addend: 0x0, symName: __ZNSt19__ptr_traits_ptr_toIPPNSt8__detail15_Hash_node_baseES2_Lb0EE10pointer_toERS2_, symObjAddr: 0x1BE0, symBinAddr: 0x100004610, symSize: 0x1C }
  - { offset: 0xCF3A, size: 0x8, addend: 0x0, symName: __ZNSt10_HashtableIiSt4pairIKilESaIS2_ENSt8__detail10_Select1stESt8equal_toIiESt4hashIiENS4_18_Mod_range_hashingENS4_20_Default_ranged_hashENS4_20_Prime_rehash_policyENS4_17_Hashtable_traitsILb0ELb0ELb1EEEE9_M_insertIRKS2_NS4_10_AllocNodeISaINS4_10_Hash_nodeIS2_Lb0EEEEEEEES0_INS4_14_Node_iteratorIS2_Lb0ELb0EEEbEOT_RKT0_St17integral_constantIbLb1EE, symObjAddr: 0x1B9C, symBinAddr: 0x1000045CC, symSize: 0x44 }
  - { offset: 0xCFA1, size: 0x8, addend: 0x0, symName: __ZNSt8__detail16_Hashtable_allocISaINS_10_Hash_nodeISt4pairIKilELb0EEEEE19_M_allocate_bucketsEm, symObjAddr: 0x1AEC, symBinAddr: 0x10000451C, symSize: 0xB0 }
  - { offset: 0xD0E1, size: 0x8, addend: 0x0, symName: __ZNSt27_Enable_default_constructorILb1ENSt8__detail15_Hash_node_baseEEC2ESt31_Enable_default_constructor_tag, symObjAddr: 0x1AD4, symBinAddr: 0x100004504, symSize: 0x18 }
  - { offset: 0xD13C, size: 0x8, addend: 0x0, symName: __ZNSt8__detail16_Hashtable_allocISaINS_10_Hash_nodeISt4pairIKilELb0EEEEEC2IS6_EEOT_, symObjAddr: 0x1AA4, symBinAddr: 0x1000044D4, symSize: 0x30 }
  - { offset: 0xD1A5, size: 0x8, addend: 0x0, symName: __ZNSt8__detail15_Hashtable_baseIiSt4pairIKilENS_10_Select1stESt8equal_toIiESt4hashIiENS_18_Mod_range_hashingENS_20_Default_ranged_hashENS_17_Hashtable_traitsILb0ELb0ELb1EEEEC2ERKS8_RKS6_, symObjAddr: 0x1A6C, symBinAddr: 0x10000449C, symSize: 0x38 }
  - { offset: 0xD1FC, size: 0x8, addend: 0x0, symName: __ZNKSt8__detail15_Hash_code_baseIiSt4pairIKilENS_10_Select1stESt4hashIiENS_18_Mod_range_hashingENS_20_Default_ranged_hashELb0EE15_M_bucket_indexERKNS_16_Hash_node_valueIS3_Lb0EEEm, symObjAddr: 0x1A08, symBinAddr: 0x100004438, symSize: 0x64 }
  - { offset: 0xD28A, size: 0x8, addend: 0x0, symName: __ZSt11__addressofINSt8__detail20_Prime_rehash_policyEEPT_RS2_, symObjAddr: 0x19F4, symBinAddr: 0x100004424, symSize: 0x14 }
  - { offset: 0xD2C0, size: 0x8, addend: 0x0, symName: __ZNSt8__detail16_Hashtable_allocISaINS_10_Hash_nodeISt4pairIKilELb0EEEEE22_M_deallocate_node_ptrEPS5_, symObjAddr: 0x199C, symBinAddr: 0x1000043CC, symSize: 0x58 }
  - { offset: 0xD3F2, size: 0x8, addend: 0x0, symName: __ZSt12__to_addressINSt8__detail10_Hash_nodeISt4pairIKilELb0EEEEPT_S7_, symObjAddr: 0x1988, symBinAddr: 0x1000043B8, symSize: 0x14 }
  - { offset: 0xD44C, size: 0x8, addend: 0x0, symName: __ZNSt8__detail16_Hashtable_allocISaINS_10_Hash_nodeISt4pairIKilELb0EEEEE17_M_node_allocatorEv, symObjAddr: 0x196C, symBinAddr: 0x10000439C, symSize: 0x1C }
  - { offset: 0xD49A, size: 0x8, addend: 0x0, symName: __ZNSt10_Head_baseILm0ERKiLb0EEC2ES1_, symObjAddr: 0x1948, symBinAddr: 0x100004378, symSize: 0x24 }
  - { offset: 0xD4C7, size: 0x8, addend: 0x0, symName: __ZN9__gnu_cxx16__aligned_bufferISt4pairIKilEE6_M_ptrEv, symObjAddr: 0x192C, symBinAddr: 0x10000435C, symSize: 0x1C }
  - { offset: 0xD4F1, size: 0x8, addend: 0x0, symName: __ZNKSt10_HashtableIiSt4pairIKilESaIS2_ENSt8__detail10_Select1stESt8equal_toIiESt4hashIiENS4_18_Mod_range_hashingENS4_20_Default_ranged_hashENS4_20_Prime_rehash_policyENS4_17_Hashtable_traitsILb0ELb0ELb1EEEE15_M_bucket_indexERKNS4_16_Hash_node_valueIS2_Lb0EEE, symObjAddr: 0x18FC, symBinAddr: 0x10000432C, symSize: 0x30 }
  - { offset: 0xD52C, size: 0x8, addend: 0x0, symName: __ZNKSt8__detail15_Hashtable_baseIiSt4pairIKilENS_10_Select1stESt8equal_toIiESt4hashIiENS_18_Mod_range_hashingENS_20_Default_ranged_hashENS_17_Hashtable_traitsILb0ELb0ELb1EEEE9_M_equalsERS2_mRKNS_16_Hash_node_valueIS3_Lb0EEE, symObjAddr: 0x189C, symBinAddr: 0x1000042CC, symSize: 0x60 }
  - { offset: 0xD589, size: 0x8, addend: 0x0, symName: __ZNKSt8__detail21_Hashtable_ebo_helperILi1ESt4hashIiELb1EE7_M_cgetEv, symObjAddr: 0x1888, symBinAddr: 0x1000042B8, symSize: 0x14 }
  - { offset: 0xD5B5, size: 0x8, addend: 0x0, symName: __ZSt7forwardIRKSt4pairIKilEEOT_RNSt16remove_referenceIS5_E4typeE, symObjAddr: 0x1874, symBinAddr: 0x1000042A4, symSize: 0x14 }
  - { offset: 0xD624, size: 0x8, addend: 0x0, symName: __ZNSt8__detail19_Node_iterator_baseISt4pairIKilELb0EEC2EPNS_10_Hash_nodeIS3_Lb0EEE, symObjAddr: 0x1850, symBinAddr: 0x100004280, symSize: 0x24 }
  - { offset: 0xD651, size: 0x8, addend: 0x0, symName: __ZNKSt8equal_toIiEclERKiS2_, symObjAddr: 0x181C, symBinAddr: 0x10000424C, symSize: 0x34 }
  - { offset: 0xD69D, size: 0x8, addend: 0x0, symName: __ZNKSt8__detail15_Hashtable_baseIiSt4pairIKilENS_10_Select1stESt8equal_toIiESt4hashIiENS_18_Mod_range_hashingENS_20_Default_ranged_hashENS_17_Hashtable_traitsILb0ELb0ELb1EEEE5_M_eqEv, symObjAddr: 0x1800, symBinAddr: 0x100004230, symSize: 0x1C }
  - { offset: 0xD6C3, size: 0x8, addend: 0x0, symName: __ZNSt8__detail22_Hashtable_hash_traitsISt4hashIiEE22__small_size_thresholdEv, symObjAddr: 0x17F8, symBinAddr: 0x100004228, symSize: 0x8 }
  - { offset: 0xD6DF, size: 0x8, addend: 0x0, symName: __ZNSt8__detail16_Hashtable_allocISaINS_10_Hash_nodeISt4pairIKilELb0EEEEE21_M_deallocate_bucketsEPPNS_15_Hash_node_baseEm, symObjAddr: 0x1780, symBinAddr: 0x1000041B0, symSize: 0x78 }
  - { offset: 0xD7EB, size: 0x8, addend: 0x0, symName: __ZNKSt10_HashtableIiSt4pairIKilESaIS2_ENSt8__detail10_Select1stESt8equal_toIiESt4hashIiENS4_18_Mod_range_hashingENS4_20_Default_ranged_hashENS4_20_Prime_rehash_policyENS4_17_Hashtable_traitsILb0ELb0ELb1EEEE21_M_uses_single_bucketEPPNS4_15_Hash_node_baseE, symObjAddr: 0x1744, symBinAddr: 0x100004174, symSize: 0x3C }
  - { offset: 0xD826, size: 0x8, addend: 0x0, symName: __ZNSt8__detail12_Insert_baseIiSt4pairIKilESaIS3_ENS_10_Select1stESt8equal_toIiESt4hashIiENS_18_Mod_range_hashingENS_20_Default_ranged_hashENS_20_Prime_rehash_policyENS_17_Hashtable_traitsILb0ELb0ELb1EEEE15_M_insert_rangeIPKS3_NS_10_AllocNodeISaINS_10_Hash_nodeIS3_Lb0EEEEEEEEvT_SO_RKT0_St17integral_constantIbLb1EE, symObjAddr: 0x16D0, symBinAddr: 0x100004100, symSize: 0x74 }
  - { offset: 0xD8DB, size: 0x8, addend: 0x0, symName: __ZNSt8__detail10_AllocNodeISaINS_10_Hash_nodeISt4pairIKilELb0EEEEEC1ERNS_16_Hashtable_allocIS6_EE, symObjAddr: 0x16AC, symBinAddr: 0x1000040DC, symSize: 0x24 }
  - { offset: 0xD908, size: 0x8, addend: 0x0, symName: __ZNSt8__detail12_Insert_baseIiSt4pairIKilESaIS3_ENS_10_Select1stESt8equal_toIiESt4hashIiENS_18_Mod_range_hashingENS_20_Default_ranged_hashENS_20_Prime_rehash_policyENS_17_Hashtable_traitsILb0ELb0ELb1EEEE20_M_conjure_hashtableEv, symObjAddr: 0x1698, symBinAddr: 0x1000040C8, symSize: 0x14 }
  - { offset: 0xD932, size: 0x8, addend: 0x0, symName: __ZNSt10_HashtableIiSt4pairIKilESaIS2_ENSt8__detail10_Select1stESt8equal_toIiESt4hashIiENS4_18_Mod_range_hashingENS4_20_Default_ranged_hashENS4_20_Prime_rehash_policyENS4_17_Hashtable_traitsILb0ELb0ELb1EEEE19_M_allocate_bucketsEm, symObjAddr: 0x1640, symBinAddr: 0x100004070, symSize: 0x58 }
  - { offset: 0xD9AE, size: 0x8, addend: 0x0, symName: __ZNSt10_HashtableIiSt4pairIKilESaIS2_ENSt8__detail10_Select1stESt8equal_toIiESt4hashIiENS4_18_Mod_range_hashingENS4_20_Default_ranged_hashENS4_20_Prime_rehash_policyENS4_17_Hashtable_traitsILb0ELb0ELb1EEEEC1ERKS9_RKS7_RKS3_, symObjAddr: 0x1564, symBinAddr: 0x100003F94, symSize: 0xDC }
  - { offset: 0xDA9D, size: 0x8, addend: 0x0, symName: __ZNSt8__detail14_Node_iteratorISt4pairIKilELb0ELb0EEC1EPNS_10_Hash_nodeIS3_Lb0EEE, symObjAddr: 0x153C, symBinAddr: 0x100003F6C, symSize: 0x28 }
  - { offset: 0xDACA, size: 0x8, addend: 0x0, symName: __ZNSt10_HashtableIiSt4pairIKilESaIS2_ENSt8__detail10_Select1stESt8equal_toIiESt4hashIiENS4_18_Mod_range_hashingENS4_20_Default_ranged_hashENS4_20_Prime_rehash_policyENS4_17_Hashtable_traitsILb0ELb0ELb1EEEE22_M_insert_bucket_beginEmPNS4_10_Hash_nodeIS2_Lb0EEE, symObjAddr: 0x1430, symBinAddr: 0x100003E60, symSize: 0x10C }
  - { offset: 0xDB16, size: 0x8, addend: 0x0, symName: __ZNKSt8__detail15_Hash_code_baseIiSt4pairIKilENS_10_Select1stESt4hashIiENS_18_Mod_range_hashingENS_20_Default_ranged_hashELb0EE13_M_store_codeERNS_21_Hash_node_code_cacheILb0EEEm, symObjAddr: 0x1414, symBinAddr: 0x100003E44, symSize: 0x1C }
  - { offset: 0xDB52, size: 0x8, addend: 0x0, symName: __ZNSt10_HashtableIiSt4pairIKilESaIS2_ENSt8__detail10_Select1stESt8equal_toIiESt4hashIiENS4_18_Mod_range_hashingENS4_20_Default_ranged_hashENS4_20_Prime_rehash_policyENS4_17_Hashtable_traitsILb0ELb0ELb1EEEE9_M_rehashEmSt17integral_constantIbLb1EE, symObjAddr: 0x12A8, symBinAddr: 0x100003CD8, symSize: 0x16C }
  - { offset: 0xDC1F, size: 0x8, addend: 0x0, symName: __ZNSt8__detail17_RehashStateGuardINS_20_Prime_rehash_policyEED1Ev, symObjAddr: 0x1264, symBinAddr: 0x100003C94, symSize: 0x44 }
  - { offset: 0xDC69, size: 0x8, addend: 0x0, symName: __ZNSt8__detail17_RehashStateGuardINS_20_Prime_rehash_policyEEC1ERS1_, symObjAddr: 0x1220, symBinAddr: 0x100003C50, symSize: 0x44 }
  - { offset: 0xDC96, size: 0x8, addend: 0x0, symName: __ZNSt8__detail16_Hashtable_allocISaINS_10_Hash_nodeISt4pairIKilELb0EEEEE18_M_deallocate_nodeEPS5_, symObjAddr: 0x11AC, symBinAddr: 0x100003BDC, symSize: 0x74 }
  - { offset: 0xDD4A, size: 0x8, addend: 0x0, symName: __ZNSt8__detail16_Hashtable_allocISaINS_10_Hash_nodeISt4pairIKilELb0EEEEE16_M_allocate_nodeIJRKSt21piecewise_construct_tSt5tupleIJRS3_EESC_IJEEEEEPS5_DpOT_, symObjAddr: 0xFC0, symBinAddr: 0x1000039F0, symSize: 0x1EC }
  - { offset: 0xDF08, size: 0x8, addend: 0x0, symName: __ZNSt8__detail10_Hash_nodeISt4pairIKilELb0EEC1Ev, symObjAddr: 0xFA0, symBinAddr: 0x1000039D0, symSize: 0x20 }
  - { offset: 0xDF2F, size: 0x8, addend: 0x0, symName: __ZSt7forwardISt5tupleIJEEEOT_RNSt16remove_referenceIS2_E4typeE, symObjAddr: 0xF8C, symBinAddr: 0x1000039BC, symSize: 0x14 }
  - { offset: 0xDF67, size: 0x8, addend: 0x0, symName: __ZSt7forwardISt5tupleIJRKiEEEOT_RNSt16remove_referenceIS4_E4typeE, symObjAddr: 0xF78, symBinAddr: 0x1000039A8, symSize: 0x14 }
  - { offset: 0xDF9F, size: 0x8, addend: 0x0, symName: __ZSt7forwardIRKSt21piecewise_construct_tEOT_RNSt16remove_referenceIS3_E4typeE, symObjAddr: 0xF64, symBinAddr: 0x100003994, symSize: 0x14 }
  - { offset: 0xDFFA, size: 0x8, addend: 0x0, symName: __ZNSt11_Tuple_implILm0EJRKiEEC2ES1_, symObjAddr: 0xF3C, symBinAddr: 0x10000396C, symSize: 0x28 }
  - { offset: 0xE03B, size: 0x8, addend: 0x0, symName: __ZNKSt10_HashtableIiSt4pairIKilESaIS2_ENSt8__detail10_Select1stESt8equal_toIiESt4hashIiENS4_18_Mod_range_hashingENS4_20_Default_ranged_hashENS4_20_Prime_rehash_policyENS4_17_Hashtable_traitsILb0ELb0ELb1EEEE19_M_find_before_nodeEmRS1_m, symObjAddr: 0xE40, symBinAddr: 0x100003870, symSize: 0xFC }
  - { offset: 0xE0CD, size: 0x8, addend: 0x0, symName: __ZNKSt8__detail15_Hash_code_baseIiSt4pairIKilENS_10_Select1stESt4hashIiENS_18_Mod_range_hashingENS_20_Default_ranged_hashELb0EE15_M_bucket_indexEmm, symObjAddr: 0xE14, symBinAddr: 0x100003844, symSize: 0x2C }
  - { offset: 0xE119, size: 0x8, addend: 0x0, symName: __ZNKSt8__detail15_Hash_code_baseIiSt4pairIKilENS_10_Select1stESt4hashIiENS_18_Mod_range_hashingENS_20_Default_ranged_hashELb0EE7_M_hashEv, symObjAddr: 0xDF8, symBinAddr: 0x100003828, symSize: 0x1C }
  - { offset: 0xE14E, size: 0x8, addend: 0x0, symName: __ZNKSt8__detail10_Select1stclIRKSt4pairIKilEEEONS0_10__1st_typeIT_E4typeEOS8_, symObjAddr: 0xDD8, symBinAddr: 0x100003808, symSize: 0x20 }
  - { offset: 0xE1A5, size: 0x8, addend: 0x0, symName: __ZNKSt10_HashtableIiSt4pairIKilESaIS2_ENSt8__detail10_Select1stESt8equal_toIiESt4hashIiENS4_18_Mod_range_hashingENS4_20_Default_ranged_hashENS4_20_Prime_rehash_policyENS4_17_Hashtable_traitsILb0ELb0ELb1EEEE3endEv, symObjAddr: 0xDB4, symBinAddr: 0x1000037E4, symSize: 0x24 }
  - { offset: 0xE1F4, size: 0x8, addend: 0x0, symName: __ZNSt8__detail20_Node_const_iteratorISt4pairIKilELb0ELb0EEC1EPNS_10_Hash_nodeIS3_Lb0EEE, symObjAddr: 0xD8C, symBinAddr: 0x1000037BC, symSize: 0x28 }
  - { offset: 0xE221, size: 0x8, addend: 0x0, symName: __ZNKSt8__detail15_Hashtable_baseIiSt4pairIKilENS_10_Select1stESt8equal_toIiESt4hashIiENS_18_Mod_range_hashingENS_20_Default_ranged_hashENS_17_Hashtable_traitsILb0ELb0ELb1EEEE13_M_key_equalsERS2_RKNS_16_Hash_node_valueIS3_Lb0EEE, symObjAddr: 0xD20, symBinAddr: 0x100003750, symSize: 0x6C }
  - { offset: 0xE2B3, size: 0x8, addend: 0x0, symName: __ZNKSt8__detail10_Hash_nodeISt4pairIKilELb0EE7_M_nextEv, symObjAddr: 0xD08, symBinAddr: 0x100003738, symSize: 0x18 }
  - { offset: 0xE2D9, size: 0x8, addend: 0x0, symName: __ZNSt10_HashtableIiSt4pairIKilESaIS2_ENSt8__detail10_Select1stESt8equal_toIiESt4hashIiENS4_18_Mod_range_hashingENS4_20_Default_ranged_hashENS4_20_Prime_rehash_policyENS4_17_Hashtable_traitsILb0ELb0ELb1EEEE22__small_size_thresholdEv, symObjAddr: 0xCF4, symBinAddr: 0x100003724, symSize: 0x14 }
  - { offset: 0xE2F5, size: 0x8, addend: 0x0, symName: __ZNKSt10_HashtableIiSt4pairIKilESaIS2_ENSt8__detail10_Select1stESt8equal_toIiESt4hashIiENS4_18_Mod_range_hashingENS4_20_Default_ranged_hashENS4_20_Prime_rehash_policyENS4_17_Hashtable_traitsILb0ELb0ELb1EEEE4sizeEv, symObjAddr: 0xCDC, symBinAddr: 0x10000370C, symSize: 0x18 }
  - { offset: 0xE31F, size: 0x8, addend: 0x0, symName: __ZNSt10_HashtableIiSt4pairIKilESaIS2_ENSt8__detail10_Select1stESt8equal_toIiESt4hashIiENS4_18_Mod_range_hashingENS4_20_Default_ranged_hashENS4_20_Prime_rehash_policyENS4_17_Hashtable_traitsILb0ELb0ELb1EEEE21_M_deallocate_bucketsEPPNS4_15_Hash_node_baseEm, symObjAddr: 0xC90, symBinAddr: 0x1000036C0, symSize: 0x4C }
  - { offset: 0xE36B, size: 0x8, addend: 0x0, symName: __ZNSt8__detail16_Hashtable_allocISaINS_10_Hash_nodeISt4pairIKilELb0EEEEE19_M_deallocate_nodesEPS5_, symObjAddr: 0xC40, symBinAddr: 0x100003670, symSize: 0x50 }
  - { offset: 0xE3CA, size: 0x8, addend: 0x0, symName: __ZNKSt10_HashtableIiSt4pairIKilESaIS2_ENSt8__detail10_Select1stESt8equal_toIiESt4hashIiENS4_18_Mod_range_hashingENS4_20_Default_ranged_hashENS4_20_Prime_rehash_policyENS4_17_Hashtable_traitsILb0ELb0ELb1EEEE8_M_beginEv, symObjAddr: 0xC28, symBinAddr: 0x100003658, symSize: 0x18 }
  - { offset: 0xE414, size: 0x8, addend: 0x0, symName: __ZNSt15__new_allocatorINSt8__detail10_Hash_nodeISt4pairIKilELb0EEEED2Ev, symObjAddr: 0xC14, symBinAddr: 0x100003644, symSize: 0x14 }
  - { offset: 0xE439, size: 0x8, addend: 0x0, symName: __ZNSt8__detail12_Insert_baseIiSt4pairIKilESaIS3_ENS_10_Select1stESt8equal_toIiESt4hashIiENS_18_Mod_range_hashingENS_20_Default_ranged_hashENS_20_Prime_rehash_policyENS_17_Hashtable_traitsILb0ELb0ELb1EEEE6insertIPKS3_EEvT_SJ_, symObjAddr: 0xBB8, symBinAddr: 0x1000035E8, symSize: 0x5C }
  - { offset: 0xE510, size: 0x8, addend: 0x0, symName: __ZNSt10_HashtableIiSt4pairIKilESaIS2_ENSt8__detail10_Select1stESt8equal_toIiESt4hashIiENS4_18_Mod_range_hashingENS4_20_Default_ranged_hashENS4_20_Prime_rehash_policyENS4_17_Hashtable_traitsILb0ELb0ELb1EEEEC1EmRKS9_RKS7_RKS3_, symObjAddr: 0xB10, symBinAddr: 0x100003540, symSize: 0xA8 }
  - { offset: 0xE582, size: 0x8, addend: 0x0, symName: __ZNKSt16initializer_listISt4pairIKilEE4sizeEv, symObjAddr: 0xAF8, symBinAddr: 0x100003528, symSize: 0x18 }
  - { offset: 0xE5AC, size: 0x8, addend: 0x0, symName: __ZNKSt8__detail14_Node_iteratorISt4pairIKilELb0ELb0EEptEv, symObjAddr: 0xAC8, symBinAddr: 0x1000034F8, symSize: 0x30 }
  - { offset: 0xE5F9, size: 0x8, addend: 0x0, symName: __ZNSt10_HashtableIiSt4pairIKilESaIS2_ENSt8__detail10_Select1stESt8equal_toIiESt4hashIiENS4_18_Mod_range_hashingENS4_20_Default_ranged_hashENS4_20_Prime_rehash_policyENS4_17_Hashtable_traitsILb0ELb0ELb1EEEE21_M_insert_unique_nodeEmmPNS4_10_Hash_nodeIS2_Lb0EEEm, symObjAddr: 0x9B8, symBinAddr: 0x1000033E8, symSize: 0x110 }
  - { offset: 0xE6AC, size: 0x8, addend: 0x0, symName: __ZNSt10_HashtableIiSt4pairIKilESaIS2_ENSt8__detail10_Select1stESt8equal_toIiESt4hashIiENS4_18_Mod_range_hashingENS4_20_Default_ranged_hashENS4_20_Prime_rehash_policyENS4_17_Hashtable_traitsILb0ELb0ELb1EEEE12_Scoped_nodeD1Ev, symObjAddr: 0x974, symBinAddr: 0x1000033A4, symSize: 0x44 }
  - { offset: 0xE721, size: 0x8, addend: 0x0, symName: __ZNSt10_HashtableIiSt4pairIKilESaIS2_ENSt8__detail10_Select1stESt8equal_toIiESt4hashIiENS4_18_Mod_range_hashingENS4_20_Default_ranged_hashENS4_20_Prime_rehash_policyENS4_17_Hashtable_traitsILb0ELb0ELb1EEEE12_Scoped_nodeC1IJRKSt21piecewise_construct_tSt5tupleIJRS1_EESL_IJEEEEEPNS4_16_Hashtable_allocISaINS4_10_Hash_nodeIS2_Lb0EEEEEEDpOT_, symObjAddr: 0x8EC, symBinAddr: 0x10000331C, symSize: 0x88 }
  - { offset: 0xE7B1, size: 0x8, addend: 0x0, symName: __ZNSt5tupleIJRKiEEC1ILb1ELb1EEES1_, symObjAddr: 0x8C4, symBinAddr: 0x1000032F4, symSize: 0x28 }
  - { offset: 0xE7FC, size: 0x8, addend: 0x0, symName: __ZNKSt10_HashtableIiSt4pairIKilESaIS2_ENSt8__detail10_Select1stESt8equal_toIiESt4hashIiENS4_18_Mod_range_hashingENS4_20_Default_ranged_hashENS4_20_Prime_rehash_policyENS4_17_Hashtable_traitsILb0ELb0ELb1EEEE12_M_find_nodeEmRS1_m, symObjAddr: 0x870, symBinAddr: 0x1000032A0, symSize: 0x54 }
  - { offset: 0xE86A, size: 0x8, addend: 0x0, symName: __ZNKSt10_HashtableIiSt4pairIKilESaIS2_ENSt8__detail10_Select1stESt8equal_toIiESt4hashIiENS4_18_Mod_range_hashingENS4_20_Default_ranged_hashENS4_20_Prime_rehash_policyENS4_17_Hashtable_traitsILb0ELb0ELb1EEEE15_M_bucket_indexEm, symObjAddr: 0x840, symBinAddr: 0x100003270, symSize: 0x30 }
  - { offset: 0xE8A5, size: 0x8, addend: 0x0, symName: __ZNKSt8__detail15_Hash_code_baseIiSt4pairIKilENS_10_Select1stESt4hashIiENS_18_Mod_range_hashingENS_20_Default_ranged_hashELb0EE12_M_hash_codeERS2_, symObjAddr: 0x808, symBinAddr: 0x100003238, symSize: 0x38 }
  - { offset: 0xE8E0, size: 0x8, addend: 0x0, symName: __ZNKSt10_HashtableIiSt4pairIKilESaIS2_ENSt8__detail10_Select1stESt8equal_toIiESt4hashIiENS4_18_Mod_range_hashingENS4_20_Default_ranged_hashENS4_20_Prime_rehash_policyENS4_17_Hashtable_traitsILb0ELb0ELb1EEEE4findERS1_, symObjAddr: 0x710, symBinAddr: 0x100003140, symSize: 0xF8 }
  - { offset: 0xE961, size: 0x8, addend: 0x0, symName: __ZNSt10_HashtableIiSt4pairIKilESaIS2_ENSt8__detail10_Select1stESt8equal_toIiESt4hashIiENS4_18_Mod_range_hashingENS4_20_Default_ranged_hashENS4_20_Prime_rehash_policyENS4_17_Hashtable_traitsILb0ELb0ELb1EEEE21_M_deallocate_bucketsEv, symObjAddr: 0x6DC, symBinAddr: 0x10000310C, symSize: 0x34 }
  - { offset: 0xE98B, size: 0x8, addend: 0x0, symName: __ZNSt10_HashtableIiSt4pairIKilESaIS2_ENSt8__detail10_Select1stESt8equal_toIiESt4hashIiENS4_18_Mod_range_hashingENS4_20_Default_ranged_hashENS4_20_Prime_rehash_policyENS4_17_Hashtable_traitsILb0ELb0ELb1EEEE5clearEv, symObjAddr: 0x67C, symBinAddr: 0x1000030AC, symSize: 0x60 }
  - { offset: 0xEA4B, size: 0x8, addend: 0x0, symName: __ZNSt10_HashtableIiSt4pairIKilESaIS2_ENSt8__detail10_Select1stESt8equal_toIiESt4hashIiENS4_18_Mod_range_hashingENS4_20_Default_ranged_hashENS4_20_Prime_rehash_policyENS4_17_Hashtable_traitsILb0ELb0ELb1EEEEC1IPKS2_EET_SJ_mRKS9_RKS7_RKS3_St17integral_constantIbLb1EE, symObjAddr: 0x604, symBinAddr: 0x100003034, symSize: 0x78 }
  - { offset: 0xEAB1, size: 0x8, addend: 0x0, symName: __ZNKSt16initializer_listISt4pairIKilEE3endEv, symObjAddr: 0x5CC, symBinAddr: 0x100002FFC, symSize: 0x38 }
  - { offset: 0xEADB, size: 0x8, addend: 0x0, symName: __ZNKSt16initializer_listISt4pairIKilEE5beginEv, symObjAddr: 0x5B4, symBinAddr: 0x100002FE4, symSize: 0x18 }
  - { offset: 0xEB05, size: 0x8, addend: 0x0, symName: __ZNSt8__detail9_Map_baseIiSt4pairIKilESaIS3_ENS_10_Select1stESt8equal_toIiESt4hashIiENS_18_Mod_range_hashingENS_20_Default_ranged_hashENS_20_Prime_rehash_policyENS_17_Hashtable_traitsILb0ELb0ELb1EEELb1EEixERS2_, symObjAddr: 0x494, symBinAddr: 0x100002EC4, symSize: 0x120 }
  - { offset: 0xEC09, size: 0x8, addend: 0x0, symName: __ZNKSt10_HashtableIiSt4pairIKilESaIS2_ENSt8__detail10_Select1stESt8equal_toIiESt4hashIiENS4_18_Mod_range_hashingENS4_20_Default_ranged_hashENS4_20_Prime_rehash_policyENS4_17_Hashtable_traitsILb0ELb0ELb1EEEE5countERS1_, symObjAddr: 0x454, symBinAddr: 0x100002E84, symSize: 0x40 }
  - { offset: 0xEC94, size: 0x8, addend: 0x0, symName: __ZNSt10_HashtableIiSt4pairIKilESaIS2_ENSt8__detail10_Select1stESt8equal_toIiESt4hashIiENS4_18_Mod_range_hashingENS4_20_Default_ranged_hashENS4_20_Prime_rehash_policyENS4_17_Hashtable_traitsILb0ELb0ELb1EEEED1Ev, symObjAddr: 0x424, symBinAddr: 0x100002E54, symSize: 0x30 }
  - { offset: 0xECDE, size: 0x8, addend: 0x0, symName: __ZNSt8__detail16_Hashtable_allocISaINS_10_Hash_nodeISt4pairIKilELb0EEEEED2Ev, symObjAddr: 0x404, symBinAddr: 0x100002E34, symSize: 0x20 }
  - { offset: 0xED28, size: 0x8, addend: 0x0, symName: __ZNSt8__detail21_Hashtable_ebo_helperILi0ESaINS_10_Hash_nodeISt4pairIKilELb0EEEELb1EED2Ev, symObjAddr: 0x3D8, symBinAddr: 0x100002E08, symSize: 0x2C }
  - { offset: 0xEDCD, size: 0x8, addend: 0x0, symName: __ZNSt10_HashtableIiSt4pairIKilESaIS2_ENSt8__detail10_Select1stESt8equal_toIiESt4hashIiENS4_18_Mod_range_hashingENS4_20_Default_ranged_hashENS4_20_Prime_rehash_policyENS4_17_Hashtable_traitsILb0ELb0ELb1EEEEC1ESt16initializer_listIS2_EmRKS9_RKS7_RKS3_, symObjAddr: 0x36C, symBinAddr: 0x100002D9C, symSize: 0x6C }
  - { offset: 0xEE3A, size: 0x8, addend: 0x0, symName: __ZNSt15__new_allocatorISt4pairIKilEED2Ev, symObjAddr: 0x358, symBinAddr: 0x100002D88, symSize: 0x14 }
  - { offset: 0xEE61, size: 0x8, addend: 0x0, symName: __ZSt7forwardIbEOT_RNSt16remove_referenceIS0_E4typeE, symObjAddr: 0x344, symBinAddr: 0x100002D74, symSize: 0x14 }
  - { offset: 0xEE97, size: 0x8, addend: 0x0, symName: __ZNSt13unordered_mapIilSt4hashIiESt8equal_toIiESaISt4pairIKilEEEixERS5_, symObjAddr: 0x320, symBinAddr: 0x100002D50, symSize: 0x24 }
  - { offset: 0xEED2, size: 0x8, addend: 0x0, symName: __ZNKSt13unordered_mapIilSt4hashIiESt8equal_toIiESaISt4pairIKilEEE5countERS5_, symObjAddr: 0x2FC, symBinAddr: 0x100002D2C, symSize: 0x24 }
  - { offset: 0xEF65, size: 0x8, addend: 0x0, symName: __ZNSt13unordered_mapIilSt4hashIiESt8equal_toIiESaISt4pairIKilEEEC1ESt16initializer_listIS6_EmRKS1_RKS3_RKS7_, symObjAddr: 0x2B4, symBinAddr: 0x100002CE4, symSize: 0x48 }
  - { offset: 0xEFB5, size: 0x8, addend: 0x0, symName: _main, symObjAddr: 0x208, symBinAddr: 0x100002C38, symSize: 0xAC }
  - { offset: 0xF00C, size: 0x8, addend: 0x0, symName: __Z2dpi, symObjAddr: 0x118, symBinAddr: 0x100002B48, symSize: 0xF0 }
  - { offset: 0xF039, size: 0x8, addend: 0x0, symName: __ZNSt8__detail20_Prime_rehash_policy8_M_resetEm, symObjAddr: 0xF4, symBinAddr: 0x100002B24, symSize: 0x24 }
  - { offset: 0xF074, size: 0x8, addend: 0x0, symName: __ZNKSt8__detail20_Prime_rehash_policy8_M_stateEv, symObjAddr: 0xDC, symBinAddr: 0x100002B0C, symSize: 0x18 }
  - { offset: 0xF0C3, size: 0x8, addend: 0x0, symName: __ZNSt8__detail20_Prime_rehash_policyC1Ef, symObjAddr: 0xB0, symBinAddr: 0x100002AE0, symSize: 0x2C }
  - { offset: 0xF0F0, size: 0x8, addend: 0x0, symName: __ZNKSt8__detail18_Mod_range_hashingclEmm, symObjAddr: 0x80, symBinAddr: 0x100002AB0, symSize: 0x30 }
  - { offset: 0xF153, size: 0x8, addend: 0x0, symName: __ZNSt8__detail15_Hash_node_baseC1Ev, symObjAddr: 0x64, symBinAddr: 0x100002A94, symSize: 0x1C }
  - { offset: 0xF17B, size: 0x8, addend: 0x0, symName: __ZNSt8__detail15_Hash_node_baseC2Ev, symObjAddr: 0x48, symBinAddr: 0x100002A78, symSize: 0x1C }
  - { offset: 0xF1A0, size: 0x8, addend: 0x0, symName: __ZNKSt4hashIiEclEi, symObjAddr: 0x30, symBinAddr: 0x100002A60, symSize: 0x18 }
  - { offset: 0xF1DD, size: 0x8, addend: 0x0, symName: __ZdlPvS_, symObjAddr: 0x18, symBinAddr: 0x100002A48, symSize: 0x18 }
  - { offset: 0xF213, size: 0x8, addend: 0x0, symName: __ZnwmPv, symObjAddr: 0x0, symBinAddr: 0x100002A30, symSize: 0x18 }
...
