---
triple:          'arm64-apple-darwin'
binary-path:     '/Users/perusonari/Documents/GitHub/ps/2025-03-31/build/2004'
relocations:
  - { offset: 0xA6C3, size: 0x8, addend: 0x0, symName: __ZStL8__ioinit, symObjAddr: 0x52901, symBinAddr: 0x10000C000, symSize: 0x0 }
  - { offset: 0xB012, size: 0x8, addend: 0x0, symName: _test_case, symObjAddr: 0x52908, symBinAddr: 0x10000C008, symSize: 0x0 }
  - { offset: 0xB31D, size: 0x8, addend: 0x0, symName: __ZNSt13unordered_mapIiiSt4hashIiESt8equal_toIiESaISt4pairIKiiEEED1Ev, symObjAddr: 0x2128, symBinAddr: 0x1000059D0, symSize: 0x20 }
  - { offset: 0xB385, size: 0x8, addend: 0x0, symName: __ZNSt4pairIKiiEC1IS0_iLb1EEERS0_S3_, symObjAddr: 0x20EC, symBinAddr: 0x100005994, symSize: 0x3C }
  - { offset: 0xB413, size: 0x8, addend: 0x0, symName: __ZNSt15__new_allocatorINSt8__detail10_Hash_nodeISt4pairIKiiELb0EEEE8allocateEmPKv, symObjAddr: 0x2070, symBinAddr: 0x100005918, symSize: 0x7C }
  - { offset: 0xB49C, size: 0x8, addend: 0x0, symName: __ZNK9__gnu_cxx16__aligned_bufferISt4pairIKiiEE7_M_addrEv, symObjAddr: 0x205C, symBinAddr: 0x100005904, symSize: 0x14 }
  - { offset: 0xB4C4, size: 0x8, addend: 0x0, symName: __ZNKSt8__detail15_Hash_code_baseIiSt4pairIKiiENS_10_Select1stESt4hashIiENS_18_Mod_range_hashingENS_20_Default_ranged_hashELb0EE12_M_hash_codeERS2_, symObjAddr: 0x2024, symBinAddr: 0x1000058CC, symSize: 0x38 }
  - { offset: 0xB546, size: 0x8, addend: 0x0, symName: __ZSt12__to_addressINSt8__detail10_Hash_nodeISt4pairIKiiELb0EEEEPT_S7_, symObjAddr: 0x2010, symBinAddr: 0x1000058B8, symSize: 0x14 }
  - { offset: 0xB599, size: 0x8, addend: 0x0, symName: __ZNSt8__detail15_Hashtable_baseIiSt4pairIKiiENS_10_Select1stESt8equal_toIiESt4hashIiENS_18_Mod_range_hashingENS_20_Default_ranged_hashENS_17_Hashtable_traitsILb0ELb0ELb1EEEE9_S_equalsEmRKNS_21_Hash_node_code_cacheILb0EEE, symObjAddr: 0x1FF8, symBinAddr: 0x1000058A0, symSize: 0x18 }
  - { offset: 0xB5C5, size: 0x8, addend: 0x0, symName: __ZNK9__gnu_cxx16__aligned_bufferISt4pairIKiiEE6_M_ptrEv, symObjAddr: 0x1FDC, symBinAddr: 0x100005884, symSize: 0x1C }
  - { offset: 0xB5ED, size: 0x8, addend: 0x0, symName: __ZNKSt8__detail15_Hash_code_baseIiSt4pairIKiiENS_10_Select1stESt4hashIiENS_18_Mod_range_hashingENS_20_Default_ranged_hashELb0EE15_M_bucket_indexERKNS_16_Hash_node_valueIS3_Lb0EEEm, symObjAddr: 0x1F78, symBinAddr: 0x100005820, symSize: 0x64 }
  - { offset: 0xB67A, size: 0x8, addend: 0x0, symName: __ZSt11__addressofINSt8__detail20_Prime_rehash_policyEEPT_RS2_, symObjAddr: 0x1F64, symBinAddr: 0x10000580C, symSize: 0x14 }
  - { offset: 0xB6AE, size: 0x8, addend: 0x0, symName: __ZNSt8__detail16_Hashtable_allocISaINS_10_Hash_nodeISt4pairIKiiELb0EEEEE16_M_allocate_nodeIJRS3_S9_EEEPS5_DpOT_, symObjAddr: 0x1E30, symBinAddr: 0x1000056D8, symSize: 0x134 }
  - { offset: 0xB81A, size: 0x8, addend: 0x0, symName: __ZNSt8__detail10_Hash_nodeISt4pairIKiiELb0EEC1Ev, symObjAddr: 0x1E10, symBinAddr: 0x1000056B8, symSize: 0x20 }
  - { offset: 0xB83E, size: 0x8, addend: 0x0, symName: __ZNKSt10_HashtableIiSt4pairIKiiESaIS2_ENSt8__detail10_Select1stESt8equal_toIiESt4hashIiENS4_18_Mod_range_hashingENS4_20_Default_ranged_hashENS4_20_Prime_rehash_policyENS4_17_Hashtable_traitsILb0ELb0ELb1EEEE15_M_bucket_indexERKNS4_16_Hash_node_valueIS2_Lb0EEE, symObjAddr: 0x1DE0, symBinAddr: 0x100005688, symSize: 0x30 }
  - { offset: 0xB877, size: 0x8, addend: 0x0, symName: __ZNKSt8__detail15_Hashtable_baseIiSt4pairIKiiENS_10_Select1stESt8equal_toIiESt4hashIiENS_18_Mod_range_hashingENS_20_Default_ranged_hashENS_17_Hashtable_traitsILb0ELb0ELb1EEEE12_M_equals_trIiEEbRKT_mRKNS_16_Hash_node_valueIS3_Lb0EEE, symObjAddr: 0x1D80, symBinAddr: 0x100005628, symSize: 0x60 }
  - { offset: 0xB8DB, size: 0x8, addend: 0x0, symName: __ZNKSt8__detail21_Hashtable_ebo_helperILi1ESt4hashIiELb1EE7_M_cgetEv, symObjAddr: 0x1D6C, symBinAddr: 0x100005614, symSize: 0x14 }
  - { offset: 0xB917, size: 0x8, addend: 0x0, symName: __ZNKSt8__detail21_Hashtable_ebo_helperILi0ESt8equal_toIiELb1EE7_M_cgetEv, symObjAddr: 0x1D58, symBinAddr: 0x100005600, symSize: 0x14 }
  - { offset: 0xB942, size: 0x8, addend: 0x0, symName: __ZSt7forwardIRNSt8__detail14_Node_iteratorISt4pairIKiiELb0ELb0EEEEOT_RNSt16remove_referenceIS7_E4typeE, symObjAddr: 0x1D44, symBinAddr: 0x1000055EC, symSize: 0x14 }
  - { offset: 0xB976, size: 0x8, addend: 0x0, symName: __ZNSt10_HashtableIiSt4pairIKiiESaIS2_ENSt8__detail10_Select1stESt8equal_toIiESt4hashIiENS4_18_Mod_range_hashingENS4_20_Default_ranged_hashENS4_20_Prime_rehash_policyENS4_17_Hashtable_traitsILb0ELb0ELb1EEEE22_M_insert_bucket_beginEmPNS4_10_Hash_nodeIS2_Lb0EEE, symObjAddr: 0x1C38, symBinAddr: 0x1000054E0, symSize: 0x10C }
  - { offset: 0xB9C0, size: 0x8, addend: 0x0, symName: __ZNKSt8__detail15_Hash_code_baseIiSt4pairIKiiENS_10_Select1stESt4hashIiENS_18_Mod_range_hashingENS_20_Default_ranged_hashELb0EE13_M_store_codeERNS_21_Hash_node_code_cacheILb0EEEm, symObjAddr: 0x1C1C, symBinAddr: 0x1000054C4, symSize: 0x1C }
  - { offset: 0xB9F8, size: 0x8, addend: 0x0, symName: __ZNSt10_HashtableIiSt4pairIKiiESaIS2_ENSt8__detail10_Select1stESt8equal_toIiESt4hashIiENS4_18_Mod_range_hashingENS4_20_Default_ranged_hashENS4_20_Prime_rehash_policyENS4_17_Hashtable_traitsILb0ELb0ELb1EEEE9_M_rehashEmSt17integral_constantIbLb1EE, symObjAddr: 0x1AB0, symBinAddr: 0x100005358, symSize: 0x16C }
  - { offset: 0xBAC3, size: 0x8, addend: 0x0, symName: __ZNSt8__detail17_RehashStateGuardINS_20_Prime_rehash_policyEED1Ev, symObjAddr: 0x1A6C, symBinAddr: 0x100005314, symSize: 0x44 }
  - { offset: 0xBB0C, size: 0x8, addend: 0x0, symName: __ZNSt8__detail17_RehashStateGuardINS_20_Prime_rehash_policyEEC1ERS1_, symObjAddr: 0x1A28, symBinAddr: 0x1000052D0, symSize: 0x44 }
  - { offset: 0xBB43, size: 0x8, addend: 0x0, symName: __ZNKSt8__detail10_AllocNodeISaINS_10_Hash_nodeISt4pairIKiiELb0EEEEEclIJRS3_S9_EEEPS5_DpOT_, symObjAddr: 0x19D8, symBinAddr: 0x100005280, symSize: 0x50 }
  - { offset: 0xBB90, size: 0x8, addend: 0x0, symName: __ZNKSt10_HashtableIiSt4pairIKiiESaIS2_ENSt8__detail10_Select1stESt8equal_toIiESt4hashIiENS4_18_Mod_range_hashingENS4_20_Default_ranged_hashENS4_20_Prime_rehash_policyENS4_17_Hashtable_traitsILb0ELb0ELb1EEEE22_M_find_before_node_trIiEEPNS4_15_Hash_node_baseEmRKT_m, symObjAddr: 0x18DC, symBinAddr: 0x100005184, symSize: 0xFC }
  - { offset: 0xBC29, size: 0x8, addend: 0x0, symName: __ZNKSt8__detail15_Hash_code_baseIiSt4pairIKiiENS_10_Select1stESt4hashIiENS_18_Mod_range_hashingENS_20_Default_ranged_hashELb0EE15_M_bucket_indexEmm, symObjAddr: 0x18B0, symBinAddr: 0x100005158, symSize: 0x2C }
  - { offset: 0xBC73, size: 0x8, addend: 0x0, symName: __ZNKSt8__detail15_Hash_code_baseIiSt4pairIKiiENS_10_Select1stESt4hashIiENS_18_Mod_range_hashingENS_20_Default_ranged_hashELb0EE7_M_hashEv, symObjAddr: 0x1894, symBinAddr: 0x10000513C, symSize: 0x1C }
  - { offset: 0xBC9E, size: 0x8, addend: 0x0, symName: __ZSt7forwardINSt8__detail14_Node_iteratorISt4pairIKiiELb0ELb0EEEEOT_RNSt16remove_referenceIS6_E4typeE, symObjAddr: 0x1880, symBinAddr: 0x100005128, symSize: 0x14 }
  - { offset: 0xBCD2, size: 0x8, addend: 0x0, symName: __ZNKSt8equal_toIiEclERKiS2_, symObjAddr: 0x184C, symBinAddr: 0x1000050F4, symSize: 0x34 }
  - { offset: 0xBD30, size: 0x8, addend: 0x0, symName: __ZNKSt8__detail15_Hashtable_baseIiSt4pairIKiiENS_10_Select1stESt8equal_toIiESt4hashIiENS_18_Mod_range_hashingENS_20_Default_ranged_hashENS_17_Hashtable_traitsILb0ELb0ELb1EEEE5_M_eqEv, symObjAddr: 0x1830, symBinAddr: 0x1000050D8, symSize: 0x1C }
  - { offset: 0xBD55, size: 0x8, addend: 0x0, symName: __ZNSt8__detail22_Hashtable_hash_traitsISt4hashIiEE22__small_size_thresholdEv, symObjAddr: 0x1828, symBinAddr: 0x1000050D0, symSize: 0x8 }
  - { offset: 0xBD6D, size: 0x8, addend: 0x0, symName: __ZSt11__addressofINSt8__detail10_Hash_nodeISt4pairIKiiELb0EEEEPT_RS6_, symObjAddr: 0x1814, symBinAddr: 0x1000050BC, symSize: 0x14 }
  - { offset: 0xBDE5, size: 0x8, addend: 0x0, symName: __ZNSt4pairINSt8__detail14_Node_iteratorIS_IKiiELb0ELb0EEEbEC1IRS4_bLb1EEEOT_OT0_, symObjAddr: 0x17C8, symBinAddr: 0x100005070, symSize: 0x4C }
  - { offset: 0xBE2B, size: 0x8, addend: 0x0, symName: __ZNSt10_HashtableIiSt4pairIKiiESaIS2_ENSt8__detail10_Select1stESt8equal_toIiESt4hashIiENS4_18_Mod_range_hashingENS4_20_Default_ranged_hashENS4_20_Prime_rehash_policyENS4_17_Hashtable_traitsILb0ELb0ELb1EEEE21_M_insert_unique_nodeEmmPNS4_10_Hash_nodeIS2_Lb0EEEm, symObjAddr: 0x16B8, symBinAddr: 0x100004F60, symSize: 0x110 }
  - { offset: 0xBEDD, size: 0x8, addend: 0x0, symName: __ZNSt10_HashtableIiSt4pairIKiiESaIS2_ENSt8__detail10_Select1stESt8equal_toIiESt4hashIiENS4_18_Mod_range_hashingENS4_20_Default_ranged_hashENS4_20_Prime_rehash_policyENS4_17_Hashtable_traitsILb0ELb0ELb1EEEE12_Scoped_nodeD1Ev, symObjAddr: 0x1674, symBinAddr: 0x100004F1C, symSize: 0x44 }
  - { offset: 0xBF33, size: 0x8, addend: 0x0, symName: __ZNSt10_HashtableIiSt4pairIKiiESaIS2_ENSt8__detail10_Select1stESt8equal_toIiESt4hashIiENS4_18_Mod_range_hashingENS4_20_Default_ranged_hashENS4_20_Prime_rehash_policyENS4_17_Hashtable_traitsILb0ELb0ELb1EEEE12_Scoped_nodeC1EPNS4_10_Hash_nodeIS2_Lb0EEEPNS4_16_Hashtable_allocISaISI_EEE, symObjAddr: 0x1640, symBinAddr: 0x100004EE8, symSize: 0x34 }
  - { offset: 0xBF6A, size: 0x8, addend: 0x0, symName: __ZNSt8__detail12_NodeBuilderINS_10_Select1stEE8_S_buildIRKiRKSt4pairIS4_iENS_10_AllocNodeISaINS_10_Hash_nodeIS7_Lb0EEEEEEEENT1_10__node_ptrEOT_OT0_RKSF_, symObjAddr: 0x15F4, symBinAddr: 0x100004E9C, symSize: 0x4C }
  - { offset: 0xBFD1, size: 0x8, addend: 0x0, symName: __ZSt7forwardIRKiEOT_RNSt16remove_referenceIS2_E4typeE, symObjAddr: 0x15E0, symBinAddr: 0x100004E88, symSize: 0x14 }
  - { offset: 0xC005, size: 0x8, addend: 0x0, symName: __ZNKSt10_HashtableIiSt4pairIKiiESaIS2_ENSt8__detail10_Select1stESt8equal_toIiESt4hashIiENS4_18_Mod_range_hashingENS4_20_Default_ranged_hashENS4_20_Prime_rehash_policyENS4_17_Hashtable_traitsILb0ELb0ELb1EEEE15_M_find_node_trIiEEPNS4_10_Hash_nodeIS2_Lb0EEEmRKT_m, symObjAddr: 0x158C, symBinAddr: 0x100004E34, symSize: 0x54 }
  - { offset: 0xC07A, size: 0x8, addend: 0x0, symName: __ZNKSt10_HashtableIiSt4pairIKiiESaIS2_ENSt8__detail10_Select1stESt8equal_toIiESt4hashIiENS4_18_Mod_range_hashingENS4_20_Default_ranged_hashENS4_20_Prime_rehash_policyENS4_17_Hashtable_traitsILb0ELb0ELb1EEEE15_M_bucket_indexEm, symObjAddr: 0x155C, symBinAddr: 0x100004E04, symSize: 0x30 }
  - { offset: 0xC0B3, size: 0x8, addend: 0x0, symName: __ZNKSt8__detail15_Hash_code_baseIiSt4pairIKiiENS_10_Select1stESt4hashIiENS_18_Mod_range_hashingENS_20_Default_ranged_hashELb0EE15_M_hash_code_trIiEEmRKT_, symObjAddr: 0x1524, symBinAddr: 0x100004DCC, symSize: 0x38 }
  - { offset: 0xC139, size: 0x8, addend: 0x0, symName: __ZNSt4pairINSt8__detail14_Node_iteratorIS_IKiiELb0ELb0EEEbEC1IS4_bLb1EEEOT_OT0_, symObjAddr: 0x14D8, symBinAddr: 0x100004D80, symSize: 0x4C }
  - { offset: 0xC17F, size: 0x8, addend: 0x0, symName: __ZNKSt8__detail15_Hashtable_baseIiSt4pairIKiiENS_10_Select1stESt8equal_toIiESt4hashIiENS_18_Mod_range_hashingENS_20_Default_ranged_hashENS_17_Hashtable_traitsILb0ELb0ELb1EEEE16_M_key_equals_trIiEEbRKT_RKNS_16_Hash_node_valueIS3_Lb0EEE, symObjAddr: 0x146C, symBinAddr: 0x100004D14, symSize: 0x6C }
  - { offset: 0xC215, size: 0x8, addend: 0x0, symName: __ZNSt10_HashtableIiSt4pairIKiiESaIS2_ENSt8__detail10_Select1stESt8equal_toIiESt4hashIiENS4_18_Mod_range_hashingENS4_20_Default_ranged_hashENS4_20_Prime_rehash_policyENS4_17_Hashtable_traitsILb0ELb0ELb1EEEE22__small_size_thresholdEv, symObjAddr: 0x1458, symBinAddr: 0x100004D00, symSize: 0x14 }
  - { offset: 0xC230, size: 0x8, addend: 0x0, symName: __ZNKSt10_HashtableIiSt4pairIKiiESaIS2_ENSt8__detail10_Select1stESt8equal_toIiESt4hashIiENS4_18_Mod_range_hashingENS4_20_Default_ranged_hashENS4_20_Prime_rehash_policyENS4_17_Hashtable_traitsILb0ELb0ELb1EEEE4sizeEv, symObjAddr: 0x1440, symBinAddr: 0x100004CE8, symSize: 0x18 }
  - { offset: 0xC274, size: 0x8, addend: 0x0, symName: __ZSt7forwardIRKSt4hashIiEEOT_RNSt16remove_referenceIS4_E4typeE, symObjAddr: 0x142C, symBinAddr: 0x100004CD4, symSize: 0x14 }
  - { offset: 0xC2A5, size: 0x8, addend: 0x0, symName: __ZSt11__addressofIPNSt8__detail15_Hash_node_baseEEPT_RS3_, symObjAddr: 0x1418, symBinAddr: 0x100004CC0, symSize: 0x14 }
  - { offset: 0xC2D9, size: 0x8, addend: 0x0, symName: __ZNSt15__new_allocatorINSt8__detail10_Hash_nodeISt4pairIKiiELb0EEEE10deallocateEPS5_m, symObjAddr: 0x13E8, symBinAddr: 0x100004C90, symSize: 0x30 }
  - { offset: 0xC31C, size: 0x8, addend: 0x0, symName: __ZSt9addressofINSt8__detail10_Hash_nodeISt4pairIKiiELb0EEEEPT_RS6_, symObjAddr: 0x13CC, symBinAddr: 0x100004C74, symSize: 0x1C }
  - { offset: 0xC350, size: 0x8, addend: 0x0, symName: __ZNSt10_HashtableIiSt4pairIKiiESaIS2_ENSt8__detail10_Select1stESt8equal_toIiESt4hashIiENS4_18_Mod_range_hashingENS4_20_Default_ranged_hashENS4_20_Prime_rehash_policyENS4_17_Hashtable_traitsILb0ELb0ELb1EEEE16_M_insert_uniqueIRS1_RKS2_NS4_10_AllocNodeISaINS4_10_Hash_nodeIS2_Lb0EEEEEEEES0_INS4_14_Node_iteratorIS2_Lb0ELb0EEEbEOT_OT0_RKT1_, symObjAddr: 0x11CC, symBinAddr: 0x100004A74, symSize: 0x200 }
  - { offset: 0xC466, size: 0x8, addend: 0x0, symName: __ZNSt10_HashtableIiSt4pairIKiiESaIS2_ENSt8__detail10_Select1stESt8equal_toIiESt4hashIiENS4_18_Mod_range_hashingENS4_20_Default_ranged_hashENS4_20_Prime_rehash_policyENS4_17_Hashtable_traitsILb0ELb0ELb1EEEE14_S_forward_keyERS1_, symObjAddr: 0x11B8, symBinAddr: 0x100004A60, symSize: 0x14 }
  - { offset: 0xC49E, size: 0x8, addend: 0x0, symName: __ZNKSt8__detail10_Select1stclIRKSt4pairIKiiEEEONS0_10__1st_typeIT_E4typeEOS8_, symObjAddr: 0x1198, symBinAddr: 0x100004A40, symSize: 0x20 }
  - { offset: 0xC4DE, size: 0x8, addend: 0x0, symName: __ZNSt15__new_allocatorIPNSt8__detail15_Hash_node_baseEE8allocateEmPKv, symObjAddr: 0x111C, symBinAddr: 0x1000049C4, symSize: 0x7C }
  - { offset: 0xC585, size: 0x8, addend: 0x0, symName: __ZSt7forwardIRKSt8equal_toIiEEOT_RNSt16remove_referenceIS4_E4typeE, symObjAddr: 0x1108, symBinAddr: 0x1000049B0, symSize: 0x14 }
  - { offset: 0xC5E7, size: 0x8, addend: 0x0, symName: __ZNSt8__detail21_Hashtable_ebo_helperILi1ESt4hashIiELb1EEC2IRKS2_EEOT_, symObjAddr: 0x10E4, symBinAddr: 0x10000498C, symSize: 0x24 }
  - { offset: 0xC61C, size: 0x8, addend: 0x0, symName: __ZNSt15__new_allocatorIPNSt8__detail15_Hash_node_baseEE10deallocateEPS2_m, symObjAddr: 0x10B4, symBinAddr: 0x10000495C, symSize: 0x30 }
  - { offset: 0xC683, size: 0x8, addend: 0x0, symName: __ZNSt15__new_allocatorIPNSt8__detail15_Hash_node_baseEED2Ev, symObjAddr: 0x10A0, symBinAddr: 0x100004948, symSize: 0x14 }
  - { offset: 0xC6B8, size: 0x8, addend: 0x0, symName: __ZSt9addressofIPNSt8__detail15_Hash_node_baseEEPT_RS3_, symObjAddr: 0x1084, symBinAddr: 0x10000492C, symSize: 0x1C }
  - { offset: 0xC718, size: 0x8, addend: 0x0, symName: __ZNSt19__ptr_traits_ptr_toIPNSt8__detail10_Hash_nodeISt4pairIKiiELb0EEES5_Lb0EE10pointer_toERS5_, symObjAddr: 0x1068, symBinAddr: 0x100004910, symSize: 0x1C }
  - { offset: 0xC76C, size: 0x8, addend: 0x0, symName: __ZNSt8__detail21_Hashtable_ebo_helperILi0ESaINS_10_Hash_nodeISt4pairIKiiELb0EEEELb1EE6_M_getEv, symObjAddr: 0x1054, symBinAddr: 0x1000048FC, symSize: 0x14 }
  - { offset: 0xC794, size: 0x8, addend: 0x0, symName: __ZNSt10_HashtableIiSt4pairIKiiESaIS2_ENSt8__detail10_Select1stESt8equal_toIiESt4hashIiENS4_18_Mod_range_hashingENS4_20_Default_ranged_hashENS4_20_Prime_rehash_policyENS4_17_Hashtable_traitsILb0ELb0ELb1EEEE20_M_insert_unique_auxIRKS2_NS4_10_AllocNodeISaINS4_10_Hash_nodeIS2_Lb0EEEEEEEES0_INS4_14_Node_iteratorIS2_Lb0ELb0EEEbEOT_RKT0_, symObjAddr: 0xFF8, symBinAddr: 0x1000048A0, symSize: 0x5C }
  - { offset: 0xC7F0, size: 0x8, addend: 0x0, symName: __ZNKSt8__detail19_ConvertToValueTypeINS_10_Select1stESt4pairIKiiEEclERKS4_, symObjAddr: 0xFE0, symBinAddr: 0x100004888, symSize: 0x18 }
  - { offset: 0xC82A, size: 0x8, addend: 0x0, symName: __ZSt7forwardIRKSt4pairIKiiEEOT_RNSt16remove_referenceIS5_E4typeE, symObjAddr: 0xFCC, symBinAddr: 0x100004874, symSize: 0x14 }
  - { offset: 0xC85B, size: 0x8, addend: 0x0, symName: __ZSt12__to_addressIPNSt8__detail15_Hash_node_baseEEPT_S4_, symObjAddr: 0xFB8, symBinAddr: 0x100004860, symSize: 0x14 }
  - { offset: 0xC8E5, size: 0x8, addend: 0x0, symName: __ZNSt8__detail21_Hashtable_ebo_helperILi0ESaINS_10_Hash_nodeISt4pairIKiiELb0EEEELb1EEC2IS6_EEOT_, symObjAddr: 0xF6C, symBinAddr: 0x100004814, symSize: 0x4C }
  - { offset: 0xC972, size: 0x8, addend: 0x0, symName: __ZSt7forwardISaINSt8__detail10_Hash_nodeISt4pairIKiiELb0EEEEEOT_RNSt16remove_referenceIS7_E4typeE, symObjAddr: 0xF58, symBinAddr: 0x100004800, symSize: 0x14 }
  - { offset: 0xC9D4, size: 0x8, addend: 0x0, symName: __ZNSt8__detail21_Hashtable_ebo_helperILi0ESt8equal_toIiELb1EEC2IRKS2_EEOT_, symObjAddr: 0xF34, symBinAddr: 0x1000047DC, symSize: 0x24 }
  - { offset: 0xCA2E, size: 0x8, addend: 0x0, symName: __ZNSt8__detail15_Hash_code_baseIiSt4pairIKiiENS_10_Select1stESt4hashIiENS_18_Mod_range_hashingENS_20_Default_ranged_hashELb0EEC2ERKS6_, symObjAddr: 0xF0C, symBinAddr: 0x1000047B4, symSize: 0x28 }
  - { offset: 0xCAD9, size: 0x8, addend: 0x0, symName: __ZNSt19__ptr_traits_ptr_toIPPNSt8__detail15_Hash_node_baseES2_Lb0EE10pointer_toERS2_, symObjAddr: 0xEF0, symBinAddr: 0x100004798, symSize: 0x1C }
  - { offset: 0xCB04, size: 0x8, addend: 0x0, symName: __ZNSt8__detail16_Hashtable_allocISaINS_10_Hash_nodeISt4pairIKiiELb0EEEEE22_M_deallocate_node_ptrEPS5_, symObjAddr: 0xE98, symBinAddr: 0x100004740, symSize: 0x58 }
  - { offset: 0xCBAC, size: 0x8, addend: 0x0, symName: __ZNSt8__detail16_Hashtable_allocISaINS_10_Hash_nodeISt4pairIKiiELb0EEEEE17_M_node_allocatorEv, symObjAddr: 0xE7C, symBinAddr: 0x100004724, symSize: 0x1C }
  - { offset: 0xCBD4, size: 0x8, addend: 0x0, symName: __ZNSt10_HashtableIiSt4pairIKiiESaIS2_ENSt8__detail10_Select1stESt8equal_toIiESt4hashIiENS4_18_Mod_range_hashingENS4_20_Default_ranged_hashENS4_20_Prime_rehash_policyENS4_17_Hashtable_traitsILb0ELb0ELb1EEEE9_M_insertIRKS2_NS4_10_AllocNodeISaINS4_10_Hash_nodeIS2_Lb0EEEEEEEES0_INS4_14_Node_iteratorIS2_Lb0ELb0EEEbEOT_RKT0_St17integral_constantIbLb1EE, symObjAddr: 0xE38, symBinAddr: 0x1000046E0, symSize: 0x44 }
  - { offset: 0xCC38, size: 0x8, addend: 0x0, symName: __ZNSt8__detail16_Hashtable_allocISaINS_10_Hash_nodeISt4pairIKiiELb0EEEEE19_M_allocate_bucketsEm, symObjAddr: 0xD88, symBinAddr: 0x100004630, symSize: 0xB0 }
  - { offset: 0xCD77, size: 0x8, addend: 0x0, symName: __ZNSt27_Enable_default_constructorILb1ENSt8__detail15_Hash_node_baseEEC2ESt31_Enable_default_constructor_tag, symObjAddr: 0xD70, symBinAddr: 0x100004618, symSize: 0x18 }
  - { offset: 0xCDD1, size: 0x8, addend: 0x0, symName: __ZNSt8__detail16_Hashtable_allocISaINS_10_Hash_nodeISt4pairIKiiELb0EEEEEC2IS6_EEOT_, symObjAddr: 0xD40, symBinAddr: 0x1000045E8, symSize: 0x30 }
  - { offset: 0xCE38, size: 0x8, addend: 0x0, symName: __ZNSt8__detail15_Hashtable_baseIiSt4pairIKiiENS_10_Select1stESt8equal_toIiESt4hashIiENS_18_Mod_range_hashingENS_20_Default_ranged_hashENS_17_Hashtable_traitsILb0ELb0ELb1EEEEC2ERKS8_RKS6_, symObjAddr: 0xD08, symBinAddr: 0x1000045B0, symSize: 0x38 }
  - { offset: 0xCE93, size: 0x8, addend: 0x0, symName: __ZN9__gnu_cxx16__aligned_bufferISt4pairIKiiEE7_M_addrEv, symObjAddr: 0xCF4, symBinAddr: 0x10000459C, symSize: 0x14 }
  - { offset: 0xCEBB, size: 0x8, addend: 0x0, symName: __ZNSt8__detail16_Hashtable_allocISaINS_10_Hash_nodeISt4pairIKiiELb0EEEEE21_M_deallocate_bucketsEPPNS_15_Hash_node_baseEm, symObjAddr: 0xC7C, symBinAddr: 0x100004524, symSize: 0x78 }
  - { offset: 0xCFC5, size: 0x8, addend: 0x0, symName: __ZNKSt10_HashtableIiSt4pairIKiiESaIS2_ENSt8__detail10_Select1stESt8equal_toIiESt4hashIiENS4_18_Mod_range_hashingENS4_20_Default_ranged_hashENS4_20_Prime_rehash_policyENS4_17_Hashtable_traitsILb0ELb0ELb1EEEE21_M_uses_single_bucketEPPNS4_15_Hash_node_baseE, symObjAddr: 0xC40, symBinAddr: 0x1000044E8, symSize: 0x3C }
  - { offset: 0xCFFE, size: 0x8, addend: 0x0, symName: __ZNSt8__detail16_Hashtable_allocISaINS_10_Hash_nodeISt4pairIKiiELb0EEEEE18_M_deallocate_nodeEPS5_, symObjAddr: 0xBCC, symBinAddr: 0x100004474, symSize: 0x74 }
  - { offset: 0xD0B0, size: 0x8, addend: 0x0, symName: __ZNSt8__detail12_Insert_baseIiSt4pairIKiiESaIS3_ENS_10_Select1stESt8equal_toIiESt4hashIiENS_18_Mod_range_hashingENS_20_Default_ranged_hashENS_20_Prime_rehash_policyENS_17_Hashtable_traitsILb0ELb0ELb1EEEE15_M_insert_rangeIPKS3_NS_10_AllocNodeISaINS_10_Hash_nodeIS3_Lb0EEEEEEEEvT_SO_RKT0_St17integral_constantIbLb1EE, symObjAddr: 0xB58, symBinAddr: 0x100004400, symSize: 0x74 }
  - { offset: 0xD163, size: 0x8, addend: 0x0, symName: __ZNSt8__detail10_AllocNodeISaINS_10_Hash_nodeISt4pairIKiiELb0EEEEEC1ERNS_16_Hashtable_allocIS6_EE, symObjAddr: 0xB34, symBinAddr: 0x1000043DC, symSize: 0x24 }
  - { offset: 0xD18F, size: 0x8, addend: 0x0, symName: __ZNSt8__detail12_Insert_baseIiSt4pairIKiiESaIS3_ENS_10_Select1stESt8equal_toIiESt4hashIiENS_18_Mod_range_hashingENS_20_Default_ranged_hashENS_20_Prime_rehash_policyENS_17_Hashtable_traitsILb0ELb0ELb1EEEE20_M_conjure_hashtableEv, symObjAddr: 0xB20, symBinAddr: 0x1000043C8, symSize: 0x14 }
  - { offset: 0xD1B7, size: 0x8, addend: 0x0, symName: __ZNSt10_HashtableIiSt4pairIKiiESaIS2_ENSt8__detail10_Select1stESt8equal_toIiESt4hashIiENS4_18_Mod_range_hashingENS4_20_Default_ranged_hashENS4_20_Prime_rehash_policyENS4_17_Hashtable_traitsILb0ELb0ELb1EEEE19_M_allocate_bucketsEm, symObjAddr: 0xAC8, symBinAddr: 0x100004370, symSize: 0x58 }
  - { offset: 0xD22F, size: 0x8, addend: 0x0, symName: __ZNSt10_HashtableIiSt4pairIKiiESaIS2_ENSt8__detail10_Select1stESt8equal_toIiESt4hashIiENS4_18_Mod_range_hashingENS4_20_Default_ranged_hashENS4_20_Prime_rehash_policyENS4_17_Hashtable_traitsILb0ELb0ELb1EEEEC1ERKS9_RKS7_RKS3_, symObjAddr: 0x9EC, symBinAddr: 0x100004294, symSize: 0xDC }
  - { offset: 0xD2F8, size: 0x8, addend: 0x0, symName: __ZN9__gnu_cxx16__aligned_bufferISt4pairIKiiEE6_M_ptrEv, symObjAddr: 0x9D0, symBinAddr: 0x100004278, symSize: 0x1C }
  - { offset: 0xD345, size: 0x8, addend: 0x0, symName: __ZNSt8__detail19_Node_iterator_baseISt4pairIKiiELb0EEC2EPNS_10_Hash_nodeIS3_Lb0EEE, symObjAddr: 0x9AC, symBinAddr: 0x100004254, symSize: 0x24 }
  - { offset: 0xD371, size: 0x8, addend: 0x0, symName: __ZNSt10_HashtableIiSt4pairIKiiESaIS2_ENSt8__detail10_Select1stESt8equal_toIiESt4hashIiENS4_18_Mod_range_hashingENS4_20_Default_ranged_hashENS4_20_Prime_rehash_policyENS4_17_Hashtable_traitsILb0ELb0ELb1EEEE21_M_deallocate_bucketsEPPNS4_15_Hash_node_baseEm, symObjAddr: 0x960, symBinAddr: 0x100004208, symSize: 0x4C }
  - { offset: 0xD3BB, size: 0x8, addend: 0x0, symName: __ZNSt8__detail16_Hashtable_allocISaINS_10_Hash_nodeISt4pairIKiiELb0EEEEE19_M_deallocate_nodesEPS5_, symObjAddr: 0x910, symBinAddr: 0x1000041B8, symSize: 0x50 }
  - { offset: 0xD439, size: 0x8, addend: 0x0, symName: __ZNSt15__new_allocatorINSt8__detail10_Hash_nodeISt4pairIKiiELb0EEEED2Ev, symObjAddr: 0x8FC, symBinAddr: 0x1000041A4, symSize: 0x14 }
  - { offset: 0xD45D, size: 0x8, addend: 0x0, symName: __ZNSt8__detail12_Insert_baseIiSt4pairIKiiESaIS3_ENS_10_Select1stESt8equal_toIiESt4hashIiENS_18_Mod_range_hashingENS_20_Default_ranged_hashENS_20_Prime_rehash_policyENS_17_Hashtable_traitsILb0ELb0ELb1EEEE6insertIPKS3_EEvT_SJ_, symObjAddr: 0x8A0, symBinAddr: 0x100004148, symSize: 0x5C }
  - { offset: 0xD52E, size: 0x8, addend: 0x0, symName: __ZNSt10_HashtableIiSt4pairIKiiESaIS2_ENSt8__detail10_Select1stESt8equal_toIiESt4hashIiENS4_18_Mod_range_hashingENS4_20_Default_ranged_hashENS4_20_Prime_rehash_policyENS4_17_Hashtable_traitsILb0ELb0ELb1EEEEC1EmRKS9_RKS7_RKS3_, symObjAddr: 0x7F8, symBinAddr: 0x1000040A0, symSize: 0xA8 }
  - { offset: 0xD59F, size: 0x8, addend: 0x0, symName: __ZNKSt16initializer_listISt4pairIKiiEE4sizeEv, symObjAddr: 0x7E0, symBinAddr: 0x100004088, symSize: 0x18 }
  - { offset: 0xD5DB, size: 0x8, addend: 0x0, symName: __ZNKSt8__detail10_Hash_nodeISt4pairIKiiELb0EE7_M_nextEv, symObjAddr: 0x7C8, symBinAddr: 0x100004070, symSize: 0x18 }
  - { offset: 0xD628, size: 0x8, addend: 0x0, symName: __ZNSt8__detail14_Node_iteratorISt4pairIKiiELb0ELb0EEC1EPNS_10_Hash_nodeIS3_Lb0EEE, symObjAddr: 0x7A0, symBinAddr: 0x100004048, symSize: 0x28 }
  - { offset: 0xD654, size: 0x8, addend: 0x0, symName: __ZNKSt10_HashtableIiSt4pairIKiiESaIS2_ENSt8__detail10_Select1stESt8equal_toIiESt4hashIiENS4_18_Mod_range_hashingENS4_20_Default_ranged_hashENS4_20_Prime_rehash_policyENS4_17_Hashtable_traitsILb0ELb0ELb1EEEE8_M_beginEv, symObjAddr: 0x788, symBinAddr: 0x100004030, symSize: 0x18 }
  - { offset: 0xD67C, size: 0x8, addend: 0x0, symName: __ZNSt10_HashtableIiSt4pairIKiiESaIS2_ENSt8__detail10_Select1stESt8equal_toIiESt4hashIiENS4_18_Mod_range_hashingENS4_20_Default_ranged_hashENS4_20_Prime_rehash_policyENS4_17_Hashtable_traitsILb0ELb0ELb1EEEE21_M_deallocate_bucketsEv, symObjAddr: 0x754, symBinAddr: 0x100003FFC, symSize: 0x34 }
  - { offset: 0xD6A4, size: 0x8, addend: 0x0, symName: __ZNSt10_HashtableIiSt4pairIKiiESaIS2_ENSt8__detail10_Select1stESt8equal_toIiESt4hashIiENS4_18_Mod_range_hashingENS4_20_Default_ranged_hashENS4_20_Prime_rehash_policyENS4_17_Hashtable_traitsILb0ELb0ELb1EEEE5clearEv, symObjAddr: 0x6F4, symBinAddr: 0x100003F9C, symSize: 0x60 }
  - { offset: 0xD75D, size: 0x8, addend: 0x0, symName: __ZNSt10_HashtableIiSt4pairIKiiESaIS2_ENSt8__detail10_Select1stESt8equal_toIiESt4hashIiENS4_18_Mod_range_hashingENS4_20_Default_ranged_hashENS4_20_Prime_rehash_policyENS4_17_Hashtable_traitsILb0ELb0ELb1EEEEC1IPKS2_EET_SJ_mRKS9_RKS7_RKS3_St17integral_constantIbLb1EE, symObjAddr: 0x67C, symBinAddr: 0x100003F24, symSize: 0x78 }
  - { offset: 0xD7C2, size: 0x8, addend: 0x0, symName: __ZNKSt16initializer_listISt4pairIKiiEE3endEv, symObjAddr: 0x644, symBinAddr: 0x100003EEC, symSize: 0x38 }
  - { offset: 0xD7EA, size: 0x8, addend: 0x0, symName: __ZNKSt16initializer_listISt4pairIKiiEE5beginEv, symObjAddr: 0x62C, symBinAddr: 0x100003ED4, symSize: 0x18 }
  - { offset: 0xD826, size: 0x8, addend: 0x0, symName: __ZNSt8__detail19_Node_iterator_baseISt4pairIKiiELb0EE7_M_incrEv, symObjAddr: 0x5FC, symBinAddr: 0x100003EA4, symSize: 0x30 }
  - { offset: 0xD84E, size: 0x8, addend: 0x0, symName: __ZNSt10_HashtableIiSt4pairIKiiESaIS2_ENSt8__detail10_Select1stESt8equal_toIiESt4hashIiENS4_18_Mod_range_hashingENS4_20_Default_ranged_hashENS4_20_Prime_rehash_policyENS4_17_Hashtable_traitsILb0ELb0ELb1EEEE3endEv, symObjAddr: 0x5D8, symBinAddr: 0x100003E80, symSize: 0x24 }
  - { offset: 0xD876, size: 0x8, addend: 0x0, symName: __ZNSt10_HashtableIiSt4pairIKiiESaIS2_ENSt8__detail10_Select1stESt8equal_toIiESt4hashIiENS4_18_Mod_range_hashingENS4_20_Default_ranged_hashENS4_20_Prime_rehash_policyENS4_17_Hashtable_traitsILb0ELb0ELb1EEEE5beginEv, symObjAddr: 0x5AC, symBinAddr: 0x100003E54, symSize: 0x2C }
  - { offset: 0xD8BF, size: 0x8, addend: 0x0, symName: __ZNSt10_HashtableIiSt4pairIKiiESaIS2_ENSt8__detail10_Select1stESt8equal_toIiESt4hashIiENS4_18_Mod_range_hashingENS4_20_Default_ranged_hashENS4_20_Prime_rehash_policyENS4_17_Hashtable_traitsILb0ELb0ELb1EEEED1Ev, symObjAddr: 0x57C, symBinAddr: 0x100003E24, symSize: 0x30 }
  - { offset: 0xD909, size: 0x8, addend: 0x0, symName: __ZNSt8__detail16_Hashtable_allocISaINS_10_Hash_nodeISt4pairIKiiELb0EEEEED2Ev, symObjAddr: 0x55C, symBinAddr: 0x100003E04, symSize: 0x20 }
  - { offset: 0xD953, size: 0x8, addend: 0x0, symName: __ZNSt8__detail21_Hashtable_ebo_helperILi0ESaINS_10_Hash_nodeISt4pairIKiiELb0EEEELb1EED2Ev, symObjAddr: 0x530, symBinAddr: 0x100003DD8, symSize: 0x2C }
  - { offset: 0xD9F3, size: 0x8, addend: 0x0, symName: __ZNSt10_HashtableIiSt4pairIKiiESaIS2_ENSt8__detail10_Select1stESt8equal_toIiESt4hashIiENS4_18_Mod_range_hashingENS4_20_Default_ranged_hashENS4_20_Prime_rehash_policyENS4_17_Hashtable_traitsILb0ELb0ELb1EEEEC1ESt16initializer_listIS2_EmRKS9_RKS7_RKS3_, symObjAddr: 0x4C4, symBinAddr: 0x100003D6C, symSize: 0x6C }
  - { offset: 0xDA60, size: 0x8, addend: 0x0, symName: __ZNSt15__new_allocatorISt4pairIKiiEED2Ev, symObjAddr: 0x4B0, symBinAddr: 0x100003D58, symSize: 0x14 }
  - { offset: 0xDA87, size: 0x8, addend: 0x0, symName: __ZSt7forwardIbEOT_RNSt16remove_referenceIS0_E4typeE, symObjAddr: 0x49C, symBinAddr: 0x100003D44, symSize: 0x14 }
  - { offset: 0xDABB, size: 0x8, addend: 0x0, symName: __ZNKSt8__detail14_Node_iteratorISt4pairIKiiELb0ELb0EEdeEv, symObjAddr: 0x460, symBinAddr: 0x100003D08, symSize: 0x3C }
  - { offset: 0xDB29, size: 0x8, addend: 0x0, symName: __ZNSt8__detail14_Node_iteratorISt4pairIKiiELb0ELb0EEppEv, symObjAddr: 0x440, symBinAddr: 0x100003CE8, symSize: 0x20 }
  - { offset: 0xDB54, size: 0x8, addend: 0x0, symName: __ZNSt8__detailneERKNS_19_Node_iterator_baseISt4pairIKiiELb0EEES6_, symObjAddr: 0x410, symBinAddr: 0x100003CB8, symSize: 0x30 }
  - { offset: 0xDB92, size: 0x8, addend: 0x0, symName: __ZNSt13unordered_mapIiiSt4hashIiESt8equal_toIiESaISt4pairIKiiEEE3endEv, symObjAddr: 0x3F4, symBinAddr: 0x100003C9C, symSize: 0x1C }
  - { offset: 0xDBBA, size: 0x8, addend: 0x0, symName: __ZNSt13unordered_mapIiiSt4hashIiESt8equal_toIiESaISt4pairIKiiEEE5beginEv, symObjAddr: 0x3D8, symBinAddr: 0x100003C80, symSize: 0x1C }
  - { offset: 0xDC36, size: 0x8, addend: 0x0, symName: __ZNSt13unordered_mapIiiSt4hashIiESt8equal_toIiESaISt4pairIKiiEEEC1ESt16initializer_listIS6_EmRKS1_RKS3_RKS7_, symObjAddr: 0x390, symBinAddr: 0x100003C38, symSize: 0x48 }
  - { offset: 0xDC86, size: 0x8, addend: 0x0, symName: _main, symObjAddr: 0x2DC, symBinAddr: 0x100003B84, symSize: 0xB4 }
  - { offset: 0xDCE6, size: 0x8, addend: 0x0, symName: __Z4testv, symObjAddr: 0x17C, symBinAddr: 0x100003A24, symSize: 0x160 }
  - { offset: 0xDD77, size: 0x8, addend: 0x0, symName: __Z10zero_countii, symObjAddr: 0x100, symBinAddr: 0x1000039A8, symSize: 0x7C }
  - { offset: 0xDDC1, size: 0x8, addend: 0x0, symName: __ZNSt8__detail20_Prime_rehash_policy8_M_resetEm, symObjAddr: 0xDC, symBinAddr: 0x100003984, symSize: 0x24 }
  - { offset: 0xDDFA, size: 0x8, addend: 0x0, symName: __ZNKSt8__detail20_Prime_rehash_policy8_M_stateEv, symObjAddr: 0xC4, symBinAddr: 0x10000396C, symSize: 0x18 }
  - { offset: 0xDE47, size: 0x8, addend: 0x0, symName: __ZNSt8__detail20_Prime_rehash_policyC1Ef, symObjAddr: 0x98, symBinAddr: 0x100003940, symSize: 0x2C }
  - { offset: 0xDE73, size: 0x8, addend: 0x0, symName: __ZNKSt8__detail18_Mod_range_hashingclEmm, symObjAddr: 0x68, symBinAddr: 0x100003910, symSize: 0x30 }
  - { offset: 0xDED5, size: 0x8, addend: 0x0, symName: __ZNSt8__detail15_Hash_node_baseC1Ev, symObjAddr: 0x4C, symBinAddr: 0x1000038F4, symSize: 0x1C }
  - { offset: 0xDEFD, size: 0x8, addend: 0x0, symName: __ZNSt8__detail15_Hash_node_baseC2Ev, symObjAddr: 0x30, symBinAddr: 0x1000038D8, symSize: 0x1C }
  - { offset: 0xDF21, size: 0x8, addend: 0x0, symName: __ZNKSt4hashIiEclEi, symObjAddr: 0x18, symBinAddr: 0x1000038C0, symSize: 0x18 }
  - { offset: 0xDF60, size: 0x8, addend: 0x0, symName: __ZnwmPv, symObjAddr: 0x0, symBinAddr: 0x1000038A8, symSize: 0x18 }
...
