---
triple:          'arm64-apple-darwin'
binary-path:     '/Users/perusonari/Documents/GitHub/ps/2025-02-14/build/2011'
relocations:
  - { offset: 0xDCBC, size: 0x8, addend: 0x0, symName: __ZStL8__ioinit, symObjAddr: 0x82EF5, symBinAddr: 0x100010000, symSize: 0x0 }
  - { offset: 0xE635, size: 0x8, addend: 0x0, symName: __Z5cacheB5cxx11, symObjAddr: 0x82EF8, symBinAddr: 0x100010008, symSize: 0x0 }
  - { offset: 0xECDC, size: 0x8, addend: 0x0, symName: __ZNSt13unordered_mapINSt7__cxx1112basic_stringIcSt11char_traitsIcESaIcEEES_IixSt4hashIiESt8equal_toIiESaISt4pairIKixEEES6_IS5_ES8_IS5_ESaISA_IKS5_SE_EEED1Ev, symObjAddr: 0x3C60, symBinAddr: 0x100008100, symSize: 0x20 }
  - { offset: 0xECFC, size: 0x8, addend: 0x0, symName: __ZNSt10_Head_baseILm0ERKiLb0EE7_M_headERS2_, symObjAddr: 0x3C48, symBinAddr: 0x1000080E8, symSize: 0x18 }
  - { offset: 0xED24, size: 0x8, addend: 0x0, symName: __ZNSt10_Head_baseILm0ERKNSt7__cxx1112basic_stringIcSt11char_traitsIcESaIcEEELb0EE7_M_headERS8_, symObjAddr: 0x3C30, symBinAddr: 0x1000080D0, symSize: 0x18 }
  - { offset: 0xED4C, size: 0x8, addend: 0x0, symName: __ZNSt11_Tuple_implILm0EJRKiEE7_M_headERS2_, symObjAddr: 0x3C14, symBinAddr: 0x1000080B4, symSize: 0x1C }
  - { offset: 0xED8A, size: 0x8, addend: 0x0, symName: __ZNSt11_Tuple_implILm0EJRKNSt7__cxx1112basic_stringIcSt11char_traitsIcESaIcEEEEE7_M_headERS8_, symObjAddr: 0x3BF8, symBinAddr: 0x100008098, symSize: 0x1C }
  - { offset: 0xEDB3, size: 0x8, addend: 0x0, symName: __ZSt12__get_helperILm0ERKiJEERT0_RSt11_Tuple_implIXT_EJS2_DpT1_EE, symObjAddr: 0x3BDC, symBinAddr: 0x10000807C, symSize: 0x1C }
  - { offset: 0xEE09, size: 0x8, addend: 0x0, symName: __ZSt12__get_helperILm0ERKNSt7__cxx1112basic_stringIcSt11char_traitsIcESaIcEEEJEERT0_RSt11_Tuple_implIXT_EJS8_DpT1_EE, symObjAddr: 0x3BC0, symBinAddr: 0x100008060, symSize: 0x1C }
  - { offset: 0xEE50, size: 0x8, addend: 0x0, symName: __ZSt7forwardIRKiEOT_RNSt16remove_referenceIS2_E4typeE, symObjAddr: 0x3BAC, symBinAddr: 0x10000804C, symSize: 0x14 }
  - { offset: 0xEE81, size: 0x8, addend: 0x0, symName: __ZSt3getILm0EJRKiEERNSt13tuple_elementIXT_ESt5tupleIJDpT0_EEE4typeERS6_, symObjAddr: 0x3B90, symBinAddr: 0x100008030, symSize: 0x1C }
  - { offset: 0xEEDC, size: 0x8, addend: 0x0, symName: __ZNSt8__detail21_Hashtable_ebo_helperILi0ESaINS_10_Hash_nodeISt4pairIKixELb0EEEELb1EEC2Ev, symObjAddr: 0x3B64, symBinAddr: 0x100008004, symSize: 0x2C }
  - { offset: 0xEF5E, size: 0x8, addend: 0x0, symName: __ZNSt8__detail21_Hashtable_ebo_helperILi0ESt8equal_toIiELb1EEC2Ev, symObjAddr: 0x3B50, symBinAddr: 0x100007FF0, symSize: 0x14 }
  - { offset: 0xEF9B, size: 0x8, addend: 0x0, symName: __ZNSt8__detail21_Hashtable_ebo_helperILi1ESt4hashIiELb1EEC2Ev, symObjAddr: 0x3B3C, symBinAddr: 0x100007FDC, symSize: 0x14 }
  - { offset: 0xEFC1, size: 0x8, addend: 0x0, symName: __ZSt7forwardIRKNSt7__cxx1112basic_stringIcSt11char_traitsIcESaIcEEEEOT_RNSt16remove_referenceIS8_E4typeE, symObjAddr: 0x3B28, symBinAddr: 0x100007FC8, symSize: 0x14 }
  - { offset: 0xEFF2, size: 0x8, addend: 0x0, symName: __ZSt3getILm0EJRKNSt7__cxx1112basic_stringIcSt11char_traitsIcESaIcEEEEERNSt13tuple_elementIXT_ESt5tupleIJDpT0_EEE4typeERSC_, symObjAddr: 0x3B0C, symBinAddr: 0x100007FAC, symSize: 0x1C }
  - { offset: 0xF035, size: 0x8, addend: 0x0, symName: __ZNSt8__detail16_Hashtable_allocISaINS_10_Hash_nodeISt4pairIKixELb0EEEEE19_M_deallocate_nodesEPS5_, symObjAddr: 0x3ABC, symBinAddr: 0x100007F5C, symSize: 0x50 }
  - { offset: 0xF0B5, size: 0x8, addend: 0x0, symName: __ZNSt15__new_allocatorINSt8__detail10_Hash_nodeISt4pairIKixELb0EEEED2Ev, symObjAddr: 0x3AA8, symBinAddr: 0x100007F48, symSize: 0x14 }
  - { offset: 0xF0D5, size: 0x8, addend: 0x0, symName: __ZSt11__addressofINSt8__detail10_Hash_nodeISt4pairIKixELb0EEEEPT_RS6_, symObjAddr: 0x3A94, symBinAddr: 0x100007F34, symSize: 0x14 }
  - { offset: 0xF172, size: 0x8, addend: 0x0, symName: __ZNSt4pairIKixEC1IJRS0_EJLm0EEJEJEEERSt5tupleIJDpT_EERS4_IJDpT1_EESt12_Index_tupleIJXspT0_EEESD_IJXspT2_EEE, symObjAddr: 0x3A4C, symBinAddr: 0x100007EEC, symSize: 0x48 }
  - { offset: 0xF1E0, size: 0x8, addend: 0x0, symName: __ZNSt15__new_allocatorIPNSt8__detail15_Hash_node_baseEE8allocateEmPKv, symObjAddr: 0x39D0, symBinAddr: 0x100007E70, symSize: 0x7C }
  - { offset: 0xF2D1, size: 0x8, addend: 0x0, symName: __ZNSt4pairIKNSt7__cxx1112basic_stringIcSt11char_traitsIcESaIcEEESt13unordered_mapIixSt4hashIiESt8equal_toIiESaIS_IKixEEEEC1IJRS6_EJLm0EEJEJEEERSt5tupleIJDpT_EERSJ_IJDpT1_EESt12_Index_tupleIJXspT0_EEESS_IJXspT2_EEE, symObjAddr: 0x3958, symBinAddr: 0x100007DF8, symSize: 0x78 }
  - { offset: 0xF357, size: 0x8, addend: 0x0, symName: __ZNSt13unordered_mapIixSt4hashIiESt8equal_toIiESaISt4pairIKixEEEC1Ev, symObjAddr: 0x3938, symBinAddr: 0x100007DD8, symSize: 0x20 }
  - { offset: 0xF394, size: 0x8, addend: 0x0, symName: __ZNSt10_HashtableIiSt4pairIKixESaIS2_ENSt8__detail10_Select1stESt8equal_toIiESt4hashIiENS4_18_Mod_range_hashingENS4_20_Default_ranged_hashENS4_20_Prime_rehash_policyENS4_17_Hashtable_traitsILb0ELb0ELb1EEEEC1Ev, symObjAddr: 0x38C8, symBinAddr: 0x100007D68, symSize: 0x70 }
  - { offset: 0xF3D1, size: 0x8, addend: 0x0, symName: __ZNSt8__detail16_Hashtable_allocISaINS_10_Hash_nodeISt4pairIKixELb0EEEEEC2Ev, symObjAddr: 0x38A8, symBinAddr: 0x100007D48, symSize: 0x20 }
  - { offset: 0xF40E, size: 0x8, addend: 0x0, symName: __ZNSt8__detail15_Hashtable_baseIiSt4pairIKixENS_10_Select1stESt8equal_toIiESt4hashIiENS_18_Mod_range_hashingENS_20_Default_ranged_hashENS_17_Hashtable_traitsILb0ELb0ELb1EEEEC2Ev, symObjAddr: 0x3880, symBinAddr: 0x100007D20, symSize: 0x28 }
  - { offset: 0xF44B, size: 0x8, addend: 0x0, symName: __ZNSt8__detail15_Hash_code_baseIiSt4pairIKixENS_10_Select1stESt4hashIiENS_18_Mod_range_hashingENS_20_Default_ranged_hashELb0EEC2Ev, symObjAddr: 0x3860, symBinAddr: 0x100007D00, symSize: 0x20 }
  - { offset: 0xF46B, size: 0x8, addend: 0x0, symName: __ZSt11__addressofINSt8__detail10_Hash_nodeISt4pairIKNSt7__cxx1112basic_stringIcSt11char_traitsIcESaIcEEESt13unordered_mapIixSt4hashIiESt8equal_toIiESaIS2_IKixEEEELb1EEEEPT_RSL_, symObjAddr: 0x384C, symBinAddr: 0x100007CEC, symSize: 0x14 }
  - { offset: 0xF4A1, size: 0x8, addend: 0x0, symName: __ZNSt10_HashtableIiSt4pairIKixESaIS2_ENSt8__detail10_Select1stESt8equal_toIiESt4hashIiENS4_18_Mod_range_hashingENS4_20_Default_ranged_hashENS4_20_Prime_rehash_policyENS4_17_Hashtable_traitsILb0ELb0ELb1EEEE5clearEv, symObjAddr: 0x37EC, symBinAddr: 0x100007C8C, symSize: 0x60 }
  - { offset: 0xF4E9, size: 0x8, addend: 0x0, symName: __ZNSt8__detail16_Hashtable_allocISaINS_10_Hash_nodeISt4pairIKixELb0EEEEE21_M_deallocate_bucketsEPPNS_15_Hash_node_baseEm, symObjAddr: 0x3774, symBinAddr: 0x100007C14, symSize: 0x78 }
  - { offset: 0xF5F5, size: 0x8, addend: 0x0, symName: __ZNKSt10_HashtableIiSt4pairIKixESaIS2_ENSt8__detail10_Select1stESt8equal_toIiESt4hashIiENS4_18_Mod_range_hashingENS4_20_Default_ranged_hashENS4_20_Prime_rehash_policyENS4_17_Hashtable_traitsILb0ELb0ELb1EEEE21_M_uses_single_bucketEPPNS4_15_Hash_node_baseE, symObjAddr: 0x3738, symBinAddr: 0x100007BD8, symSize: 0x3C }
  - { offset: 0xF64E, size: 0x8, addend: 0x0, symName: __ZSt9addressofINSt8__detail10_Hash_nodeISt4pairIKixELb0EEEEPT_RS6_, symObjAddr: 0x371C, symBinAddr: 0x100007BBC, symSize: 0x1C }
  - { offset: 0xF6CD, size: 0x8, addend: 0x0, symName: __ZNSt4pairIKixEC1IJRS0_EJEEESt21piecewise_construct_tSt5tupleIJDpT_EES5_IJDpT0_EE, symObjAddr: 0x36E0, symBinAddr: 0x100007B80, symSize: 0x3C }
  - { offset: 0xF741, size: 0x8, addend: 0x0, symName: __ZNSt11_Tuple_implILm0EJRKiEEC2EOS2_, symObjAddr: 0x36B8, symBinAddr: 0x100007B58, symSize: 0x28 }
  - { offset: 0xF772, size: 0x8, addend: 0x0, symName: __ZNK9__gnu_cxx16__aligned_bufferISt4pairIKixEE7_M_addrEv, symObjAddr: 0x36A4, symBinAddr: 0x100007B44, symSize: 0x14 }
  - { offset: 0xF797, size: 0x8, addend: 0x0, symName: __ZSt12__to_addressIPNSt8__detail15_Hash_node_baseEEPT_S4_, symObjAddr: 0x3690, symBinAddr: 0x100007B30, symSize: 0x14 }
  - { offset: 0xF83A, size: 0x8, addend: 0x0, symName: __ZNSt4pairIKNSt7__cxx1112basic_stringIcSt11char_traitsIcESaIcEEESt13unordered_mapIixSt4hashIiESt8equal_toIiESaIS_IKixEEEEC1IJRS6_EJEEESt21piecewise_construct_tSt5tupleIJDpT_EESK_IJDpT0_EE, symObjAddr: 0x3654, symBinAddr: 0x100007AF4, symSize: 0x3C }
  - { offset: 0xF8AE, size: 0x8, addend: 0x0, symName: __ZNSt11_Tuple_implILm0EJRKNSt7__cxx1112basic_stringIcSt11char_traitsIcESaIcEEEEEC2EOS8_, symObjAddr: 0x362C, symBinAddr: 0x100007ACC, symSize: 0x28 }
  - { offset: 0xF8DF, size: 0x8, addend: 0x0, symName: __ZNK9__gnu_cxx16__aligned_bufferISt4pairIKNSt7__cxx1112basic_stringIcSt11char_traitsIcESaIcEEESt13unordered_mapIixSt4hashIiESt8equal_toIiESaIS1_IKixEEEEE7_M_addrEv, symObjAddr: 0x3618, symBinAddr: 0x100007AB8, symSize: 0x14 }
  - { offset: 0xF904, size: 0x8, addend: 0x0, symName: __ZSt11__addressofIPNSt8__detail15_Hash_node_baseEEPT_RS3_, symObjAddr: 0x3604, symBinAddr: 0x100007AA4, symSize: 0x14 }
  - { offset: 0xF935, size: 0x8, addend: 0x0, symName: __ZSt9addressofINSt8__detail10_Hash_nodeISt4pairIKNSt7__cxx1112basic_stringIcSt11char_traitsIcESaIcEEESt13unordered_mapIixSt4hashIiESt8equal_toIiESaIS2_IKixEEEELb1EEEEPT_RSL_, symObjAddr: 0x35E8, symBinAddr: 0x100007A88, symSize: 0x1C }
  - { offset: 0xF98C, size: 0x8, addend: 0x0, symName: __ZNSt10_HashtableIiSt4pairIKixESaIS2_ENSt8__detail10_Select1stESt8equal_toIiESt4hashIiENS4_18_Mod_range_hashingENS4_20_Default_ranged_hashENS4_20_Prime_rehash_policyENS4_17_Hashtable_traitsILb0ELb0ELb1EEEED1Ev, symObjAddr: 0x35B8, symBinAddr: 0x100007A58, symSize: 0x30 }
  - { offset: 0xF9D6, size: 0x8, addend: 0x0, symName: __ZNSt8__detail16_Hashtable_allocISaINS_10_Hash_nodeISt4pairIKixELb0EEEEED2Ev, symObjAddr: 0x3598, symBinAddr: 0x100007A38, symSize: 0x20 }
  - { offset: 0xFA20, size: 0x8, addend: 0x0, symName: __ZNSt8__detail21_Hashtable_ebo_helperILi0ESaINS_10_Hash_nodeISt4pairIKixELb0EEEELb1EED2Ev, symObjAddr: 0x356C, symBinAddr: 0x100007A0C, symSize: 0x2C }
  - { offset: 0xFA68, size: 0x8, addend: 0x0, symName: __ZNSt10_HashtableIiSt4pairIKixESaIS2_ENSt8__detail10_Select1stESt8equal_toIiESt4hashIiENS4_18_Mod_range_hashingENS4_20_Default_ranged_hashENS4_20_Prime_rehash_policyENS4_17_Hashtable_traitsILb0ELb0ELb1EEEE21_M_deallocate_bucketsEPPNS4_15_Hash_node_baseEm, symObjAddr: 0x3520, symBinAddr: 0x1000079C0, symSize: 0x4C }
  - { offset: 0xFAB4, size: 0x8, addend: 0x0, symName: __ZNSt8__detail16_Hashtable_allocISaINS_10_Hash_nodeISt4pairIKixELb0EEEEE19_M_allocate_bucketsEm, symObjAddr: 0x3470, symBinAddr: 0x100007910, symSize: 0xB0 }
  - { offset: 0xFBD3, size: 0x8, addend: 0x0, symName: __ZNSt19__ptr_traits_ptr_toIPNSt8__detail10_Hash_nodeISt4pairIKixELb0EEES5_Lb0EE10pointer_toERS5_, symObjAddr: 0x3454, symBinAddr: 0x1000078F4, symSize: 0x1C }
  - { offset: 0xFC2B, size: 0x8, addend: 0x0, symName: __ZNSt15__new_allocatorINSt8__detail10_Hash_nodeISt4pairIKixELb0EEEE10deallocateEPS5_m, symObjAddr: 0x3418, symBinAddr: 0x1000078B8, symSize: 0x3C }
  - { offset: 0xFCF3, size: 0x8, addend: 0x0, symName: __ZNSt5tupleIJRKiEEC1EOS2_, symObjAddr: 0x33F0, symBinAddr: 0x100007890, symSize: 0x28 }
  - { offset: 0xFD20, size: 0x8, addend: 0x0, symName: __ZNSt15__new_allocatorINSt8__detail10_Hash_nodeISt4pairIKixELb0EEEE8allocateEmPKv, symObjAddr: 0x3360, symBinAddr: 0x100007800, symSize: 0x90 }
  - { offset: 0xFDAA, size: 0x8, addend: 0x0, symName: __ZNSt8__detail21_Hashtable_ebo_helperILi0ESaINS_10_Hash_nodeISt4pairIKixELb0EEEELb1EE6_M_getEv, symObjAddr: 0x334C, symBinAddr: 0x1000077EC, symSize: 0x14 }
  - { offset: 0xFDD8, size: 0x8, addend: 0x0, symName: __ZN9__gnu_cxx16__aligned_bufferISt4pairIKixEE7_M_addrEv, symObjAddr: 0x3338, symBinAddr: 0x1000077D8, symSize: 0x14 }
  - { offset: 0xFDFD, size: 0x8, addend: 0x0, symName: __ZNSt8__detail15_Hashtable_baseIiSt4pairIKixENS_10_Select1stESt8equal_toIiESt4hashIiENS_18_Mod_range_hashingENS_20_Default_ranged_hashENS_17_Hashtable_traitsILb0ELb0ELb1EEEE9_S_equalsEmRKNS_21_Hash_node_code_cacheILb0EEE, symObjAddr: 0x3320, symBinAddr: 0x1000077C0, symSize: 0x18 }
  - { offset: 0xFE2C, size: 0x8, addend: 0x0, symName: __ZNK9__gnu_cxx16__aligned_bufferISt4pairIKixEE6_M_ptrEv, symObjAddr: 0x3304, symBinAddr: 0x1000077A4, symSize: 0x1C }
  - { offset: 0xFE56, size: 0x8, addend: 0x0, symName: __ZNKSt8__detail21_Hashtable_ebo_helperILi0ESt8equal_toIiELb1EE7_M_cgetEv, symObjAddr: 0x32F0, symBinAddr: 0x100007790, symSize: 0x14 }
  - { offset: 0xFE80, size: 0x8, addend: 0x0, symName: __ZNSt8__detail16_Hashtable_allocISaINS_10_Hash_nodeISt4pairIKNSt7__cxx1112basic_stringIcSt11char_traitsIcESaIcEEESt13unordered_mapIixSt4hashIiESt8equal_toIiESaIS2_IKixEEEELb1EEEEE19_M_allocate_bucketsEm, symObjAddr: 0x3240, symBinAddr: 0x1000076E0, symSize: 0xB0 }
  - { offset: 0xFFA4, size: 0x8, addend: 0x0, symName: __ZNSt15__new_allocatorINSt8__detail10_Hash_nodeISt4pairIKNSt7__cxx1112basic_stringIcSt11char_traitsIcESaIcEEESt13unordered_mapIixSt4hashIiESt8equal_toIiESaIS2_IKixEEEELb1EEEE10deallocateEPSK_m, symObjAddr: 0x31FC, symBinAddr: 0x10000769C, symSize: 0x44 }
  - { offset: 0x10060, size: 0x8, addend: 0x0, symName: __ZNSt5tupleIJRKNSt7__cxx1112basic_stringIcSt11char_traitsIcESaIcEEEEEC1EOS8_, symObjAddr: 0x31D4, symBinAddr: 0x100007674, symSize: 0x28 }
  - { offset: 0x1008D, size: 0x8, addend: 0x0, symName: __ZNSt15__new_allocatorINSt8__detail10_Hash_nodeISt4pairIKNSt7__cxx1112basic_stringIcSt11char_traitsIcESaIcEEESt13unordered_mapIixSt4hashIiESt8equal_toIiESaIS2_IKixEEEELb1EEEE8allocateEmPKv, symObjAddr: 0x312C, symBinAddr: 0x1000075CC, symSize: 0xA8 }
  - { offset: 0x1011B, size: 0x8, addend: 0x0, symName: __ZN9__gnu_cxx16__aligned_bufferISt4pairIKNSt7__cxx1112basic_stringIcSt11char_traitsIcESaIcEEESt13unordered_mapIixSt4hashIiESt8equal_toIiESaIS1_IKixEEEEE7_M_addrEv, symObjAddr: 0x3118, symBinAddr: 0x1000075B8, symSize: 0x14 }
  - { offset: 0x10140, size: 0x8, addend: 0x0, symName: __ZNSt8__detail15_Hashtable_baseINSt7__cxx1112basic_stringIcSt11char_traitsIcESaIcEEESt4pairIKS6_St13unordered_mapIixSt4hashIiESt8equal_toIiESaIS7_IKixEEEENS_10_Select1stESC_IS6_ESA_IS6_ENS_18_Mod_range_hashingENS_20_Default_ranged_hashENS_17_Hashtable_traitsILb1ELb0ELb1EEEE9_S_equalsEmRKNS_21_Hash_node_code_cacheILb1EEE, symObjAddr: 0x30EC, symBinAddr: 0x10000758C, symSize: 0x2C }
  - { offset: 0x1017F, size: 0x8, addend: 0x0, symName: __ZNK9__gnu_cxx16__aligned_bufferISt4pairIKNSt7__cxx1112basic_stringIcSt11char_traitsIcESaIcEEESt13unordered_mapIixSt4hashIiESt8equal_toIiESaIS1_IKixEEEEE6_M_ptrEv, symObjAddr: 0x30D0, symBinAddr: 0x100007570, symSize: 0x1C }
  - { offset: 0x101A4, size: 0x8, addend: 0x0, symName: __ZSteqIcSt11char_traitsIcESaIcEEbRKNSt7__cxx1112basic_stringIT_T0_T1_EESA_, symObjAddr: 0x3050, symBinAddr: 0x1000074F0, symSize: 0x80 }
  - { offset: 0x101FE, size: 0x8, addend: 0x0, symName: __ZNKSt8__detail21_Hashtable_ebo_helperILi0ESt8equal_toINSt7__cxx1112basic_stringIcSt11char_traitsIcESaIcEEEELb1EE7_M_cgetEv, symObjAddr: 0x303C, symBinAddr: 0x1000074DC, symSize: 0x14 }
  - { offset: 0x10228, size: 0x8, addend: 0x0, symName: __ZNSt15__new_allocatorIPNSt8__detail15_Hash_node_baseEE10deallocateEPS2_m, symObjAddr: 0x300C, symBinAddr: 0x1000074AC, symSize: 0x30 }
  - { offset: 0x10293, size: 0x8, addend: 0x0, symName: __ZNSt15__new_allocatorIPNSt8__detail15_Hash_node_baseEED2Ev, symObjAddr: 0x2FF8, symBinAddr: 0x100007498, symSize: 0x14 }
  - { offset: 0x102C8, size: 0x8, addend: 0x0, symName: __ZSt9addressofIPNSt8__detail15_Hash_node_baseEEPT_RS3_, symObjAddr: 0x2FDC, symBinAddr: 0x10000747C, symSize: 0x1C }
  - { offset: 0x102F9, size: 0x8, addend: 0x0, symName: __ZNSt19__ptr_traits_ptr_toIPNSt8__detail10_Hash_nodeISt4pairIKNSt7__cxx1112basic_stringIcSt11char_traitsIcESaIcEEESt13unordered_mapIixSt4hashIiESt8equal_toIiESaIS2_IKixEEEELb1EEESK_Lb0EE10pointer_toERSK_, symObjAddr: 0x2FC0, symBinAddr: 0x100007460, symSize: 0x1C }
  - { offset: 0x10376, size: 0x8, addend: 0x0, symName: __ZNSt4pairIKNSt7__cxx1112basic_stringIcSt11char_traitsIcESaIcEEESt13unordered_mapIixSt4hashIiESt8equal_toIiESaIS_IKixEEEED1Ev, symObjAddr: 0x2F94, symBinAddr: 0x100007434, symSize: 0x2C }
  - { offset: 0x103BE, size: 0x8, addend: 0x0, symName: __ZNSt13unordered_mapIixSt4hashIiESt8equal_toIiESaISt4pairIKixEEED1Ev, symObjAddr: 0x2F74, symBinAddr: 0x100007414, symSize: 0x20 }
  - { offset: 0x103E3, size: 0x8, addend: 0x0, symName: __ZNSt8__detail21_Hashtable_ebo_helperILi0ESaINS_10_Hash_nodeISt4pairIKNSt7__cxx1112basic_stringIcSt11char_traitsIcESaIcEEESt13unordered_mapIixSt4hashIiESt8equal_toIiESaIS2_IKixEEEELb1EEEELb1EE6_M_getEv, symObjAddr: 0x2F60, symBinAddr: 0x100007400, symSize: 0x14 }
  - { offset: 0x1040D, size: 0x8, addend: 0x0, symName: __ZNSt10_HashtableIiSt4pairIKixESaIS2_ENSt8__detail10_Select1stESt8equal_toIiESt4hashIiENS4_18_Mod_range_hashingENS4_20_Default_ranged_hashENS4_20_Prime_rehash_policyENS4_17_Hashtable_traitsILb0ELb0ELb1EEEE21_M_deallocate_bucketsEv, symObjAddr: 0x2F2C, symBinAddr: 0x1000073CC, symSize: 0x34 }
  - { offset: 0x10437, size: 0x8, addend: 0x0, symName: __ZNKSt8__detail15_Hash_code_baseIiSt4pairIKixENS_10_Select1stESt4hashIiENS_18_Mod_range_hashingENS_20_Default_ranged_hashELb0EE15_M_bucket_indexERKNS_16_Hash_node_valueIS3_Lb0EEEm, symObjAddr: 0x2EC8, symBinAddr: 0x100007368, symSize: 0x64 }
  - { offset: 0x104C9, size: 0x8, addend: 0x0, symName: __ZNSt10_HashtableIiSt4pairIKixESaIS2_ENSt8__detail10_Select1stESt8equal_toIiESt4hashIiENS4_18_Mod_range_hashingENS4_20_Default_ranged_hashENS4_20_Prime_rehash_policyENS4_17_Hashtable_traitsILb0ELb0ELb1EEEE19_M_allocate_bucketsEm, symObjAddr: 0x2E70, symBinAddr: 0x100007310, symSize: 0x58 }
  - { offset: 0x10504, size: 0x8, addend: 0x0, symName: __ZNSt8__detail16_Hashtable_allocISaINS_10_Hash_nodeISt4pairIKixELb0EEEEE22_M_deallocate_node_ptrEPS5_, symObjAddr: 0x2E18, symBinAddr: 0x1000072B8, symSize: 0x58 }
  - { offset: 0x10635, size: 0x8, addend: 0x0, symName: __ZSt12__to_addressINSt8__detail10_Hash_nodeISt4pairIKixELb0EEEEPT_S7_, symObjAddr: 0x2E04, symBinAddr: 0x1000072A4, symSize: 0x14 }
  - { offset: 0x1068F, size: 0x8, addend: 0x0, symName: __ZNSt8__detail16_Hashtable_allocISaINS_10_Hash_nodeISt4pairIKixELb0EEEEE17_M_node_allocatorEv, symObjAddr: 0x2DE8, symBinAddr: 0x100007288, symSize: 0x1C }
  - { offset: 0x106DE, size: 0x8, addend: 0x0, symName: __ZNSt10_Head_baseILm0ERKiLb0EEC2ES1_, symObjAddr: 0x2DC4, symBinAddr: 0x100007264, symSize: 0x24 }
  - { offset: 0x1070B, size: 0x8, addend: 0x0, symName: __ZN9__gnu_cxx16__aligned_bufferISt4pairIKixEE6_M_ptrEv, symObjAddr: 0x2DA8, symBinAddr: 0x100007248, symSize: 0x1C }
  - { offset: 0x10735, size: 0x8, addend: 0x0, symName: __ZNKSt10_HashtableIiSt4pairIKixESaIS2_ENSt8__detail10_Select1stESt8equal_toIiESt4hashIiENS4_18_Mod_range_hashingENS4_20_Default_ranged_hashENS4_20_Prime_rehash_policyENS4_17_Hashtable_traitsILb0ELb0ELb1EEEE15_M_bucket_indexERKNS4_16_Hash_node_valueIS2_Lb0EEE, symObjAddr: 0x2D78, symBinAddr: 0x100007218, symSize: 0x30 }
  - { offset: 0x10770, size: 0x8, addend: 0x0, symName: __ZNKSt8__detail15_Hashtable_baseIiSt4pairIKixENS_10_Select1stESt8equal_toIiESt4hashIiENS_18_Mod_range_hashingENS_20_Default_ranged_hashENS_17_Hashtable_traitsILb0ELb0ELb1EEEE9_M_equalsERS2_mRKNS_16_Hash_node_valueIS3_Lb0EEE, symObjAddr: 0x2D18, symBinAddr: 0x1000071B8, symSize: 0x60 }
  - { offset: 0x107CD, size: 0x8, addend: 0x0, symName: __ZNKSt8__detail21_Hashtable_ebo_helperILi1ESt4hashIiELb1EE7_M_cgetEv, symObjAddr: 0x2D04, symBinAddr: 0x1000071A4, symSize: 0x14 }
  - { offset: 0x107F8, size: 0x8, addend: 0x0, symName: __ZSt7forwardIRKSt4pairIKixEEOT_RNSt16remove_referenceIS5_E4typeE, symObjAddr: 0x2CF0, symBinAddr: 0x100007190, symSize: 0x14 }
  - { offset: 0x10869, size: 0x8, addend: 0x0, symName: __ZNSt8__detail19_Node_iterator_baseISt4pairIKixELb0EEC2EPNS_10_Hash_nodeIS3_Lb0EEE, symObjAddr: 0x2CCC, symBinAddr: 0x10000716C, symSize: 0x24 }
  - { offset: 0x10896, size: 0x8, addend: 0x0, symName: __ZNKSt8equal_toIiEclERKiS2_, symObjAddr: 0x2C98, symBinAddr: 0x100007138, symSize: 0x34 }
  - { offset: 0x108E2, size: 0x8, addend: 0x0, symName: __ZNKSt8__detail15_Hashtable_baseIiSt4pairIKixENS_10_Select1stESt8equal_toIiESt4hashIiENS_18_Mod_range_hashingENS_20_Default_ranged_hashENS_17_Hashtable_traitsILb0ELb0ELb1EEEE5_M_eqEv, symObjAddr: 0x2C7C, symBinAddr: 0x10000711C, symSize: 0x1C }
  - { offset: 0x10908, size: 0x8, addend: 0x0, symName: __ZNSt8__detail22_Hashtable_hash_traitsISt4hashIiEE22__small_size_thresholdEv, symObjAddr: 0x2C74, symBinAddr: 0x100007114, symSize: 0x8 }
  - { offset: 0x10924, size: 0x8, addend: 0x0, symName: __ZNKSt8__detail15_Hash_code_baseINSt7__cxx1112basic_stringIcSt11char_traitsIcESaIcEEESt4pairIKS6_St13unordered_mapIixSt4hashIiESt8equal_toIiESaIS7_IKixEEEENS_10_Select1stESA_IS6_ENS_18_Mod_range_hashingENS_20_Default_ranged_hashELb1EE15_M_bucket_indexERKNS_16_Hash_node_valueISI_Lb1EEEm, symObjAddr: 0x2C44, symBinAddr: 0x1000070E4, symSize: 0x30 }
  - { offset: 0x10970, size: 0x8, addend: 0x0, symName: __ZNSt10_HashtableINSt7__cxx1112basic_stringIcSt11char_traitsIcESaIcEEESt4pairIKS5_St13unordered_mapIixSt4hashIiESt8equal_toIiESaIS6_IKixEEEESaISH_ENSt8__detail10_Select1stESB_IS5_ES9_IS5_ENSJ_18_Mod_range_hashingENSJ_20_Default_ranged_hashENSJ_20_Prime_rehash_policyENSJ_17_Hashtable_traitsILb1ELb0ELb1EEEE19_M_allocate_bucketsEm, symObjAddr: 0x2BEC, symBinAddr: 0x10000708C, symSize: 0x58 }
  - { offset: 0x109A6, size: 0x8, addend: 0x0, symName: __ZSt11__addressofINSt8__detail20_Prime_rehash_policyEEPT_RS2_, symObjAddr: 0x2BD8, symBinAddr: 0x100007078, symSize: 0x14 }
  - { offset: 0x10A61, size: 0x8, addend: 0x0, symName: __ZSt12__to_addressINSt8__detail10_Hash_nodeISt4pairIKNSt7__cxx1112basic_stringIcSt11char_traitsIcESaIcEEESt13unordered_mapIixSt4hashIiESt8equal_toIiESaIS2_IKixEEEELb1EEEEPT_SM_, symObjAddr: 0x2BC4, symBinAddr: 0x100007064, symSize: 0x14 }
  - { offset: 0x10AE0, size: 0x8, addend: 0x0, symName: __ZNSt10_Head_baseILm0ERKNSt7__cxx1112basic_stringIcSt11char_traitsIcESaIcEEELb0EEC2ES7_, symObjAddr: 0x2BA0, symBinAddr: 0x100007040, symSize: 0x24 }
  - { offset: 0x10B0D, size: 0x8, addend: 0x0, symName: __ZN9__gnu_cxx16__aligned_bufferISt4pairIKNSt7__cxx1112basic_stringIcSt11char_traitsIcESaIcEEESt13unordered_mapIixSt4hashIiESt8equal_toIiESaIS1_IKixEEEEE6_M_ptrEv, symObjAddr: 0x2B84, symBinAddr: 0x100007024, symSize: 0x1C }
  - { offset: 0x10B37, size: 0x8, addend: 0x0, symName: __ZNKSt10_HashtableINSt7__cxx1112basic_stringIcSt11char_traitsIcESaIcEEESt4pairIKS5_St13unordered_mapIixSt4hashIiESt8equal_toIiESaIS6_IKixEEEESaISH_ENSt8__detail10_Select1stESB_IS5_ES9_IS5_ENSJ_18_Mod_range_hashingENSJ_20_Default_ranged_hashENSJ_20_Prime_rehash_policyENSJ_17_Hashtable_traitsILb1ELb0ELb1EEEE15_M_bucket_indexERKNSJ_16_Hash_node_valueISH_Lb1EEE, symObjAddr: 0x2B54, symBinAddr: 0x100006FF4, symSize: 0x30 }
  - { offset: 0x10B72, size: 0x8, addend: 0x0, symName: __ZNKSt8__detail15_Hashtable_baseINSt7__cxx1112basic_stringIcSt11char_traitsIcESaIcEEESt4pairIKS6_St13unordered_mapIixSt4hashIiESt8equal_toIiESaIS7_IKixEEEENS_10_Select1stESC_IS6_ESA_IS6_ENS_18_Mod_range_hashingENS_20_Default_ranged_hashENS_17_Hashtable_traitsILb1ELb0ELb1EEEE9_M_equalsERS8_mRKNS_16_Hash_node_valueISI_Lb1EEE, symObjAddr: 0x2AEC, symBinAddr: 0x100006F8C, symSize: 0x68 }
  - { offset: 0x10BCF, size: 0x8, addend: 0x0, symName: __ZNKSt8__detail21_Hashtable_ebo_helperILi1ESt4hashINSt7__cxx1112basic_stringIcSt11char_traitsIcESaIcEEEELb1EE7_M_cgetEv, symObjAddr: 0x2AD8, symBinAddr: 0x100006F78, symSize: 0x14 }
  - { offset: 0x10BFA, size: 0x8, addend: 0x0, symName: __ZSt7forwardIRKSt4pairIKNSt7__cxx1112basic_stringIcSt11char_traitsIcESaIcEEESt13unordered_mapIixSt4hashIiESt8equal_toIiESaIS0_IKixEEEEEOT_RNSt16remove_referenceISK_E4typeE, symObjAddr: 0x2AC4, symBinAddr: 0x100006F64, symSize: 0x14 }
  - { offset: 0x10C6B, size: 0x8, addend: 0x0, symName: __ZNSt8__detail19_Node_iterator_baseISt4pairIKNSt7__cxx1112basic_stringIcSt11char_traitsIcESaIcEEESt13unordered_mapIixSt4hashIiESt8equal_toIiESaIS1_IKixEEEELb1EEC2EPNS_10_Hash_nodeISI_Lb1EEE, symObjAddr: 0x2AA0, symBinAddr: 0x100006F40, symSize: 0x24 }
  - { offset: 0x10C98, size: 0x8, addend: 0x0, symName: __ZNKSt8equal_toINSt7__cxx1112basic_stringIcSt11char_traitsIcESaIcEEEEclERKS5_S8_, symObjAddr: 0x2A78, symBinAddr: 0x100006F18, symSize: 0x28 }
  - { offset: 0x10CE4, size: 0x8, addend: 0x0, symName: __ZNKSt8__detail15_Hashtable_baseINSt7__cxx1112basic_stringIcSt11char_traitsIcESaIcEEESt4pairIKS6_St13unordered_mapIixSt4hashIiESt8equal_toIiESaIS7_IKixEEEENS_10_Select1stESC_IS6_ESA_IS6_ENS_18_Mod_range_hashingENS_20_Default_ranged_hashENS_17_Hashtable_traitsILb1ELb0ELb1EEEE5_M_eqEv, symObjAddr: 0x2A5C, symBinAddr: 0x100006EFC, symSize: 0x1C }
  - { offset: 0x10D0A, size: 0x8, addend: 0x0, symName: __ZNSt8__detail22_Hashtable_hash_traitsISt4hashINSt7__cxx1112basic_stringIcSt11char_traitsIcESaIcEEEEE22__small_size_thresholdEv, symObjAddr: 0x2A54, symBinAddr: 0x100006EF4, symSize: 0x8 }
  - { offset: 0x10D94, size: 0x8, addend: 0x0, symName: __ZNSt19__ptr_traits_ptr_toIPPNSt8__detail15_Hash_node_baseES2_Lb0EE10pointer_toERS2_, symObjAddr: 0x2A38, symBinAddr: 0x100006ED8, symSize: 0x1C }
  - { offset: 0x10DC1, size: 0x8, addend: 0x0, symName: __ZNSt8__detail16_Hashtable_allocISaINS_10_Hash_nodeISt4pairIKNSt7__cxx1112basic_stringIcSt11char_traitsIcESaIcEEESt13unordered_mapIixSt4hashIiESt8equal_toIiESaIS2_IKixEEEELb1EEEEE22_M_deallocate_node_ptrEPSK_, symObjAddr: 0x29E0, symBinAddr: 0x100006E80, symSize: 0x58 }
  - { offset: 0x10E6D, size: 0x8, addend: 0x0, symName: __ZNSt8__detail16_Hashtable_allocISaINS_10_Hash_nodeISt4pairIKNSt7__cxx1112basic_stringIcSt11char_traitsIcESaIcEEESt13unordered_mapIixSt4hashIiESt8equal_toIiESaIS2_IKixEEEELb1EEEEE17_M_node_allocatorEv, symObjAddr: 0x29C4, symBinAddr: 0x100006E64, symSize: 0x1C }
  - { offset: 0x10EBD, size: 0x8, addend: 0x0, symName: __ZNSt8__detail14_Node_iteratorISt4pairIKixELb0ELb0EEC1EPNS_10_Hash_nodeIS3_Lb0EEE, symObjAddr: 0x299C, symBinAddr: 0x100006E3C, symSize: 0x28 }
  - { offset: 0x10EEA, size: 0x8, addend: 0x0, symName: __ZNSt10_HashtableIiSt4pairIKixESaIS2_ENSt8__detail10_Select1stESt8equal_toIiESt4hashIiENS4_18_Mod_range_hashingENS4_20_Default_ranged_hashENS4_20_Prime_rehash_policyENS4_17_Hashtable_traitsILb0ELb0ELb1EEEE22_M_insert_bucket_beginEmPNS4_10_Hash_nodeIS2_Lb0EEE, symObjAddr: 0x2890, symBinAddr: 0x100006D30, symSize: 0x10C }
  - { offset: 0x10F36, size: 0x8, addend: 0x0, symName: __ZNKSt8__detail15_Hash_code_baseIiSt4pairIKixENS_10_Select1stESt4hashIiENS_18_Mod_range_hashingENS_20_Default_ranged_hashELb0EE13_M_store_codeERNS_21_Hash_node_code_cacheILb0EEEm, symObjAddr: 0x2874, symBinAddr: 0x100006D14, symSize: 0x1C }
  - { offset: 0x10F72, size: 0x8, addend: 0x0, symName: __ZNSt10_HashtableIiSt4pairIKixESaIS2_ENSt8__detail10_Select1stESt8equal_toIiESt4hashIiENS4_18_Mod_range_hashingENS4_20_Default_ranged_hashENS4_20_Prime_rehash_policyENS4_17_Hashtable_traitsILb0ELb0ELb1EEEE9_M_rehashEmSt17integral_constantIbLb1EE, symObjAddr: 0x2708, symBinAddr: 0x100006BA8, symSize: 0x16C }
  - { offset: 0x1101F, size: 0x8, addend: 0x0, symName: __ZNSt8__detail16_Hashtable_allocISaINS_10_Hash_nodeISt4pairIKixELb0EEEEE18_M_deallocate_nodeEPS5_, symObjAddr: 0x2694, symBinAddr: 0x100006B34, symSize: 0x74 }
  - { offset: 0x110D3, size: 0x8, addend: 0x0, symName: __ZNSt8__detail16_Hashtable_allocISaINS_10_Hash_nodeISt4pairIKixELb0EEEEE16_M_allocate_nodeIJRKSt21piecewise_construct_tSt5tupleIJRS3_EESC_IJEEEEEPS5_DpOT_, symObjAddr: 0x24A8, symBinAddr: 0x100006948, symSize: 0x1EC }
  - { offset: 0x11291, size: 0x8, addend: 0x0, symName: __ZNSt8__detail10_Hash_nodeISt4pairIKixELb0EEC1Ev, symObjAddr: 0x2488, symBinAddr: 0x100006928, symSize: 0x20 }
  - { offset: 0x112B7, size: 0x8, addend: 0x0, symName: __ZSt7forwardISt5tupleIJRKiEEEOT_RNSt16remove_referenceIS4_E4typeE, symObjAddr: 0x2474, symBinAddr: 0x100006914, symSize: 0x14 }
  - { offset: 0x11313, size: 0x8, addend: 0x0, symName: __ZNSt11_Tuple_implILm0EJRKiEEC2ES1_, symObjAddr: 0x244C, symBinAddr: 0x1000068EC, symSize: 0x28 }
  - { offset: 0x11355, size: 0x8, addend: 0x0, symName: __ZNKSt10_HashtableIiSt4pairIKixESaIS2_ENSt8__detail10_Select1stESt8equal_toIiESt4hashIiENS4_18_Mod_range_hashingENS4_20_Default_ranged_hashENS4_20_Prime_rehash_policyENS4_17_Hashtable_traitsILb0ELb0ELb1EEEE19_M_find_before_nodeEmRS1_m, symObjAddr: 0x2350, symBinAddr: 0x1000067F0, symSize: 0xFC }
  - { offset: 0x113E7, size: 0x8, addend: 0x0, symName: __ZNKSt8__detail15_Hash_code_baseIiSt4pairIKixENS_10_Select1stESt4hashIiENS_18_Mod_range_hashingENS_20_Default_ranged_hashELb0EE15_M_bucket_indexEmm, symObjAddr: 0x2324, symBinAddr: 0x1000067C4, symSize: 0x2C }
  - { offset: 0x11433, size: 0x8, addend: 0x0, symName: __ZNKSt8__detail15_Hash_code_baseIiSt4pairIKixENS_10_Select1stESt4hashIiENS_18_Mod_range_hashingENS_20_Default_ranged_hashELb0EE7_M_hashEv, symObjAddr: 0x2308, symBinAddr: 0x1000067A8, symSize: 0x1C }
  - { offset: 0x11468, size: 0x8, addend: 0x0, symName: __ZNKSt8__detail10_Select1stclIRKSt4pairIKixEEEONS0_10__1st_typeIT_E4typeEOS8_, symObjAddr: 0x22E8, symBinAddr: 0x100006788, symSize: 0x20 }
  - { offset: 0x114C0, size: 0x8, addend: 0x0, symName: __ZNKSt10_HashtableIiSt4pairIKixESaIS2_ENSt8__detail10_Select1stESt8equal_toIiESt4hashIiENS4_18_Mod_range_hashingENS4_20_Default_ranged_hashENS4_20_Prime_rehash_policyENS4_17_Hashtable_traitsILb0ELb0ELb1EEEE3endEv, symObjAddr: 0x22C4, symBinAddr: 0x100006764, symSize: 0x24 }
  - { offset: 0x11510, size: 0x8, addend: 0x0, symName: __ZNSt8__detail20_Node_const_iteratorISt4pairIKixELb0ELb0EEC1EPNS_10_Hash_nodeIS3_Lb0EEE, symObjAddr: 0x229C, symBinAddr: 0x10000673C, symSize: 0x28 }
  - { offset: 0x1153D, size: 0x8, addend: 0x0, symName: __ZNKSt8__detail15_Hashtable_baseIiSt4pairIKixENS_10_Select1stESt8equal_toIiESt4hashIiENS_18_Mod_range_hashingENS_20_Default_ranged_hashENS_17_Hashtable_traitsILb0ELb0ELb1EEEE13_M_key_equalsERS2_RKNS_16_Hash_node_valueIS3_Lb0EEE, symObjAddr: 0x2230, symBinAddr: 0x1000066D0, symSize: 0x6C }
  - { offset: 0x115CF, size: 0x8, addend: 0x0, symName: __ZNKSt8__detail10_Hash_nodeISt4pairIKixELb0EE7_M_nextEv, symObjAddr: 0x2218, symBinAddr: 0x1000066B8, symSize: 0x18 }
  - { offset: 0x115F9, size: 0x8, addend: 0x0, symName: __ZNKSt10_HashtableIiSt4pairIKixESaIS2_ENSt8__detail10_Select1stESt8equal_toIiESt4hashIiENS4_18_Mod_range_hashingENS4_20_Default_ranged_hashENS4_20_Prime_rehash_policyENS4_17_Hashtable_traitsILb0ELb0ELb1EEEE8_M_beginEv, symObjAddr: 0x2200, symBinAddr: 0x1000066A0, symSize: 0x18 }
  - { offset: 0x1161F, size: 0x8, addend: 0x0, symName: __ZNSt10_HashtableIiSt4pairIKixESaIS2_ENSt8__detail10_Select1stESt8equal_toIiESt4hashIiENS4_18_Mod_range_hashingENS4_20_Default_ranged_hashENS4_20_Prime_rehash_policyENS4_17_Hashtable_traitsILb0ELb0ELb1EEEE22__small_size_thresholdEv, symObjAddr: 0x21EC, symBinAddr: 0x10000668C, symSize: 0x14 }
  - { offset: 0x1163B, size: 0x8, addend: 0x0, symName: __ZNKSt10_HashtableIiSt4pairIKixESaIS2_ENSt8__detail10_Select1stESt8equal_toIiESt4hashIiENS4_18_Mod_range_hashingENS4_20_Default_ranged_hashENS4_20_Prime_rehash_policyENS4_17_Hashtable_traitsILb0ELb0ELb1EEEE4sizeEv, symObjAddr: 0x21D4, symBinAddr: 0x100006674, symSize: 0x18 }
  - { offset: 0x1168B, size: 0x8, addend: 0x0, symName: __ZNSt8__detail14_Node_iteratorISt4pairIKNSt7__cxx1112basic_stringIcSt11char_traitsIcESaIcEEESt13unordered_mapIixSt4hashIiESt8equal_toIiESaIS1_IKixEEEELb0ELb1EEC1EPNS_10_Hash_nodeISI_Lb1EEE, symObjAddr: 0x21AC, symBinAddr: 0x10000664C, symSize: 0x28 }
  - { offset: 0x116B8, size: 0x8, addend: 0x0, symName: __ZNSt10_HashtableINSt7__cxx1112basic_stringIcSt11char_traitsIcESaIcEEESt4pairIKS5_St13unordered_mapIixSt4hashIiESt8equal_toIiESaIS6_IKixEEEESaISH_ENSt8__detail10_Select1stESB_IS5_ES9_IS5_ENSJ_18_Mod_range_hashingENSJ_20_Default_ranged_hashENSJ_20_Prime_rehash_policyENSJ_17_Hashtable_traitsILb1ELb0ELb1EEEE22_M_insert_bucket_beginEmPNSJ_10_Hash_nodeISH_Lb1EEE, symObjAddr: 0x20A0, symBinAddr: 0x100006540, symSize: 0x10C }
  - { offset: 0x11704, size: 0x8, addend: 0x0, symName: __ZNKSt8__detail15_Hash_code_baseINSt7__cxx1112basic_stringIcSt11char_traitsIcESaIcEEESt4pairIKS6_St13unordered_mapIixSt4hashIiESt8equal_toIiESaIS7_IKixEEEENS_10_Select1stESA_IS6_ENS_18_Mod_range_hashingENS_20_Default_ranged_hashELb1EE13_M_store_codeERNS_21_Hash_node_code_cacheILb1EEEm, symObjAddr: 0x2078, symBinAddr: 0x100006518, symSize: 0x28 }
  - { offset: 0x11750, size: 0x8, addend: 0x0, symName: __ZNSt10_HashtableINSt7__cxx1112basic_stringIcSt11char_traitsIcESaIcEEESt4pairIKS5_St13unordered_mapIixSt4hashIiESt8equal_toIiESaIS6_IKixEEEESaISH_ENSt8__detail10_Select1stESB_IS5_ES9_IS5_ENSJ_18_Mod_range_hashingENSJ_20_Default_ranged_hashENSJ_20_Prime_rehash_policyENSJ_17_Hashtable_traitsILb1ELb0ELb1EEEE9_M_rehashEmSt17integral_constantIbLb1EE, symObjAddr: 0x1F0C, symBinAddr: 0x1000063AC, symSize: 0x16C }
  - { offset: 0x1181E, size: 0x8, addend: 0x0, symName: __ZNSt8__detail17_RehashStateGuardINS_20_Prime_rehash_policyEED1Ev, symObjAddr: 0x1EC8, symBinAddr: 0x100006368, symSize: 0x44 }
  - { offset: 0x11869, size: 0x8, addend: 0x0, symName: __ZNSt8__detail17_RehashStateGuardINS_20_Prime_rehash_policyEEC1ERS1_, symObjAddr: 0x1E84, symBinAddr: 0x100006324, symSize: 0x44 }
  - { offset: 0x11896, size: 0x8, addend: 0x0, symName: __ZNSt8__detail16_Hashtable_allocISaINS_10_Hash_nodeISt4pairIKNSt7__cxx1112basic_stringIcSt11char_traitsIcESaIcEEESt13unordered_mapIixSt4hashIiESt8equal_toIiESaIS2_IKixEEEELb1EEEEE16_M_allocate_nodeIJRKSt21piecewise_construct_tSt5tupleIJRS9_EESR_IJEEEEEPSK_DpOT_, symObjAddr: 0x1C98, symBinAddr: 0x100006138, symSize: 0x1EC }
  - { offset: 0x11A54, size: 0x8, addend: 0x0, symName: __ZNSt8__detail10_Hash_nodeISt4pairIKNSt7__cxx1112basic_stringIcSt11char_traitsIcESaIcEEESt13unordered_mapIixSt4hashIiESt8equal_toIiESaIS1_IKixEEEELb1EEC1Ev, symObjAddr: 0x1C78, symBinAddr: 0x100006118, symSize: 0x20 }
  - { offset: 0x11A7A, size: 0x8, addend: 0x0, symName: __ZSt7forwardISt5tupleIJEEEOT_RNSt16remove_referenceIS2_E4typeE, symObjAddr: 0x1C64, symBinAddr: 0x100006104, symSize: 0x14 }
  - { offset: 0x11AB1, size: 0x8, addend: 0x0, symName: __ZSt7forwardISt5tupleIJRKNSt7__cxx1112basic_stringIcSt11char_traitsIcESaIcEEEEEEOT_RNSt16remove_referenceISA_E4typeE, symObjAddr: 0x1C50, symBinAddr: 0x1000060F0, symSize: 0x14 }
  - { offset: 0x11AE8, size: 0x8, addend: 0x0, symName: __ZSt7forwardIRKSt21piecewise_construct_tEOT_RNSt16remove_referenceIS3_E4typeE, symObjAddr: 0x1C3C, symBinAddr: 0x1000060DC, symSize: 0x14 }
  - { offset: 0x11B44, size: 0x8, addend: 0x0, symName: __ZNSt11_Tuple_implILm0EJRKNSt7__cxx1112basic_stringIcSt11char_traitsIcESaIcEEEEEC2ES7_, symObjAddr: 0x1C14, symBinAddr: 0x1000060B4, symSize: 0x28 }
  - { offset: 0x11B86, size: 0x8, addend: 0x0, symName: __ZNKSt10_HashtableINSt7__cxx1112basic_stringIcSt11char_traitsIcESaIcEEESt4pairIKS5_St13unordered_mapIixSt4hashIiESt8equal_toIiESaIS6_IKixEEEESaISH_ENSt8__detail10_Select1stESB_IS5_ES9_IS5_ENSJ_18_Mod_range_hashingENSJ_20_Default_ranged_hashENSJ_20_Prime_rehash_policyENSJ_17_Hashtable_traitsILb1ELb0ELb1EEEE19_M_find_before_nodeEmRS7_m, symObjAddr: 0x1B18, symBinAddr: 0x100005FB8, symSize: 0xFC }
  - { offset: 0x11C18, size: 0x8, addend: 0x0, symName: __ZNKSt8__detail15_Hash_code_baseINSt7__cxx1112basic_stringIcSt11char_traitsIcESaIcEEESt4pairIKS6_St13unordered_mapIixSt4hashIiESt8equal_toIiESaIS7_IKixEEEENS_10_Select1stESA_IS6_ENS_18_Mod_range_hashingENS_20_Default_ranged_hashELb1EE15_M_bucket_indexEmm, symObjAddr: 0x1AEC, symBinAddr: 0x100005F8C, symSize: 0x2C }
  - { offset: 0x11C64, size: 0x8, addend: 0x0, symName: __ZNKSt15__str_hash_baseIcSaIcENSt7__cxx1112basic_stringIcSt11char_traitsIcES0_EEEclERKS5_, symObjAddr: 0x1AA4, symBinAddr: 0x100005F44, symSize: 0x48 }
  - { offset: 0x11C9F, size: 0x8, addend: 0x0, symName: __ZNKSt8__detail15_Hash_code_baseINSt7__cxx1112basic_stringIcSt11char_traitsIcESaIcEEESt4pairIKS6_St13unordered_mapIixSt4hashIiESt8equal_toIiESaIS7_IKixEEEENS_10_Select1stESA_IS6_ENS_18_Mod_range_hashingENS_20_Default_ranged_hashELb1EE7_M_hashEv, symObjAddr: 0x1A88, symBinAddr: 0x100005F28, symSize: 0x1C }
  - { offset: 0x11CC9, size: 0x8, addend: 0x0, symName: __ZNKSt8__detail10_Select1stclIRKSt4pairIKNSt7__cxx1112basic_stringIcSt11char_traitsIcESaIcEEESt13unordered_mapIixSt4hashIiESt8equal_toIiESaIS2_IKixEEEEEEONS0_10__1st_typeIT_E4typeEOSN_, symObjAddr: 0x1A68, symBinAddr: 0x100005F08, symSize: 0x20 }
  - { offset: 0x11D21, size: 0x8, addend: 0x0, symName: __ZNKSt10_HashtableINSt7__cxx1112basic_stringIcSt11char_traitsIcESaIcEEESt4pairIKS5_St13unordered_mapIixSt4hashIiESt8equal_toIiESaIS6_IKixEEEESaISH_ENSt8__detail10_Select1stESB_IS5_ES9_IS5_ENSJ_18_Mod_range_hashingENSJ_20_Default_ranged_hashENSJ_20_Prime_rehash_policyENSJ_17_Hashtable_traitsILb1ELb0ELb1EEEE3endEv, symObjAddr: 0x1A44, symBinAddr: 0x100005EE4, symSize: 0x24 }
  - { offset: 0x11D71, size: 0x8, addend: 0x0, symName: __ZNSt8__detail20_Node_const_iteratorISt4pairIKNSt7__cxx1112basic_stringIcSt11char_traitsIcESaIcEEESt13unordered_mapIixSt4hashIiESt8equal_toIiESaIS1_IKixEEEELb0ELb1EEC1EPNS_10_Hash_nodeISI_Lb1EEE, symObjAddr: 0x1A1C, symBinAddr: 0x100005EBC, symSize: 0x28 }
  - { offset: 0x11D9E, size: 0x8, addend: 0x0, symName: __ZNKSt8__detail15_Hashtable_baseINSt7__cxx1112basic_stringIcSt11char_traitsIcESaIcEEESt4pairIKS6_St13unordered_mapIixSt4hashIiESt8equal_toIiESaIS7_IKixEEEENS_10_Select1stESC_IS6_ESA_IS6_ENS_18_Mod_range_hashingENS_20_Default_ranged_hashENS_17_Hashtable_traitsILb1ELb0ELb1EEEE13_M_key_equalsERS8_RKNS_16_Hash_node_valueISI_Lb1EEE, symObjAddr: 0x19B0, symBinAddr: 0x100005E50, symSize: 0x6C }
  - { offset: 0x11E2C, size: 0x8, addend: 0x0, symName: __ZNSt10_HashtableINSt7__cxx1112basic_stringIcSt11char_traitsIcESaIcEEESt4pairIKS5_St13unordered_mapIixSt4hashIiESt8equal_toIiESaIS6_IKixEEEESaISH_ENSt8__detail10_Select1stESB_IS5_ES9_IS5_ENSJ_18_Mod_range_hashingENSJ_20_Default_ranged_hashENSJ_20_Prime_rehash_policyENSJ_17_Hashtable_traitsILb1ELb0ELb1EEEE22__small_size_thresholdEv, symObjAddr: 0x199C, symBinAddr: 0x100005E3C, symSize: 0x14 }
  - { offset: 0x11E48, size: 0x8, addend: 0x0, symName: __ZNKSt10_HashtableINSt7__cxx1112basic_stringIcSt11char_traitsIcESaIcEEESt4pairIKS5_St13unordered_mapIixSt4hashIiESt8equal_toIiESaIS6_IKixEEEESaISH_ENSt8__detail10_Select1stESB_IS5_ES9_IS5_ENSJ_18_Mod_range_hashingENSJ_20_Default_ranged_hashENSJ_20_Prime_rehash_policyENSJ_17_Hashtable_traitsILb1ELb0ELb1EEEE4sizeEv, symObjAddr: 0x1984, symBinAddr: 0x100005E24, symSize: 0x18 }
  - { offset: 0x11E72, size: 0x8, addend: 0x0, symName: __ZNSt8__detail16_Hashtable_allocISaINS_10_Hash_nodeISt4pairIKNSt7__cxx1112basic_stringIcSt11char_traitsIcESaIcEEESt13unordered_mapIixSt4hashIiESt8equal_toIiESaIS2_IKixEEEELb1EEEEE21_M_deallocate_bucketsEPPNS_15_Hash_node_baseEm, symObjAddr: 0x190C, symBinAddr: 0x100005DAC, symSize: 0x78 }
  - { offset: 0x11F7E, size: 0x8, addend: 0x0, symName: __ZNKSt10_HashtableINSt7__cxx1112basic_stringIcSt11char_traitsIcESaIcEEESt4pairIKS5_St13unordered_mapIixSt4hashIiESt8equal_toIiESaIS6_IKixEEEESaISH_ENSt8__detail10_Select1stESB_IS5_ES9_IS5_ENSJ_18_Mod_range_hashingENSJ_20_Default_ranged_hashENSJ_20_Prime_rehash_policyENSJ_17_Hashtable_traitsILb1ELb0ELb1EEEE21_M_uses_single_bucketEPPNSJ_15_Hash_node_baseE, symObjAddr: 0x18D0, symBinAddr: 0x100005D70, symSize: 0x3C }
  - { offset: 0x11FB9, size: 0x8, addend: 0x0, symName: __ZNSt8__detail16_Hashtable_allocISaINS_10_Hash_nodeISt4pairIKNSt7__cxx1112basic_stringIcSt11char_traitsIcESaIcEEESt13unordered_mapIixSt4hashIiESt8equal_toIiESaIS2_IKixEEEELb1EEEEE18_M_deallocate_nodeEPSK_, symObjAddr: 0x1854, symBinAddr: 0x100005CF4, symSize: 0x7C }
  - { offset: 0x1206D, size: 0x8, addend: 0x0, symName: __ZNKSt8__detail10_Hash_nodeISt4pairIKNSt7__cxx1112basic_stringIcSt11char_traitsIcESaIcEEESt13unordered_mapIixSt4hashIiESt8equal_toIiESaIS1_IKixEEEELb1EE7_M_nextEv, symObjAddr: 0x183C, symBinAddr: 0x100005CDC, symSize: 0x18 }
  - { offset: 0x12097, size: 0x8, addend: 0x0, symName: __ZNKSt8__detail14_Node_iteratorISt4pairIKixELb0ELb0EEptEv, symObjAddr: 0x180C, symBinAddr: 0x100005CAC, symSize: 0x30 }
  - { offset: 0x120E4, size: 0x8, addend: 0x0, symName: __ZNSt10_HashtableIiSt4pairIKixESaIS2_ENSt8__detail10_Select1stESt8equal_toIiESt4hashIiENS4_18_Mod_range_hashingENS4_20_Default_ranged_hashENS4_20_Prime_rehash_policyENS4_17_Hashtable_traitsILb0ELb0ELb1EEEE21_M_insert_unique_nodeEmmPNS4_10_Hash_nodeIS2_Lb0EEEm, symObjAddr: 0x16FC, symBinAddr: 0x100005B9C, symSize: 0x110 }
  - { offset: 0x12198, size: 0x8, addend: 0x0, symName: __ZNSt10_HashtableIiSt4pairIKixESaIS2_ENSt8__detail10_Select1stESt8equal_toIiESt4hashIiENS4_18_Mod_range_hashingENS4_20_Default_ranged_hashENS4_20_Prime_rehash_policyENS4_17_Hashtable_traitsILb0ELb0ELb1EEEE12_Scoped_nodeD1Ev, symObjAddr: 0x16B8, symBinAddr: 0x100005B58, symSize: 0x44 }
  - { offset: 0x1220E, size: 0x8, addend: 0x0, symName: __ZNSt10_HashtableIiSt4pairIKixESaIS2_ENSt8__detail10_Select1stESt8equal_toIiESt4hashIiENS4_18_Mod_range_hashingENS4_20_Default_ranged_hashENS4_20_Prime_rehash_policyENS4_17_Hashtable_traitsILb0ELb0ELb1EEEE12_Scoped_nodeC1IJRKSt21piecewise_construct_tSt5tupleIJRS1_EESL_IJEEEEEPNS4_16_Hashtable_allocISaINS4_10_Hash_nodeIS2_Lb0EEEEEEDpOT_, symObjAddr: 0x1630, symBinAddr: 0x100005AD0, symSize: 0x88 }
  - { offset: 0x1229F, size: 0x8, addend: 0x0, symName: __ZNSt5tupleIJRKiEEC1ILb1ELb1EEES1_, symObjAddr: 0x1608, symBinAddr: 0x100005AA8, symSize: 0x28 }
  - { offset: 0x122EB, size: 0x8, addend: 0x0, symName: __ZNKSt10_HashtableIiSt4pairIKixESaIS2_ENSt8__detail10_Select1stESt8equal_toIiESt4hashIiENS4_18_Mod_range_hashingENS4_20_Default_ranged_hashENS4_20_Prime_rehash_policyENS4_17_Hashtable_traitsILb0ELb0ELb1EEEE12_M_find_nodeEmRS1_m, symObjAddr: 0x15B4, symBinAddr: 0x100005A54, symSize: 0x54 }
  - { offset: 0x12359, size: 0x8, addend: 0x0, symName: __ZNKSt10_HashtableIiSt4pairIKixESaIS2_ENSt8__detail10_Select1stESt8equal_toIiESt4hashIiENS4_18_Mod_range_hashingENS4_20_Default_ranged_hashENS4_20_Prime_rehash_policyENS4_17_Hashtable_traitsILb0ELb0ELb1EEEE15_M_bucket_indexEm, symObjAddr: 0x1584, symBinAddr: 0x100005A24, symSize: 0x30 }
  - { offset: 0x12394, size: 0x8, addend: 0x0, symName: __ZNKSt8__detail15_Hash_code_baseIiSt4pairIKixENS_10_Select1stESt4hashIiENS_18_Mod_range_hashingENS_20_Default_ranged_hashELb0EE12_M_hash_codeERS2_, symObjAddr: 0x154C, symBinAddr: 0x1000059EC, symSize: 0x38 }
  - { offset: 0x123CF, size: 0x8, addend: 0x0, symName: __ZNKSt10_HashtableIiSt4pairIKixESaIS2_ENSt8__detail10_Select1stESt8equal_toIiESt4hashIiENS4_18_Mod_range_hashingENS4_20_Default_ranged_hashENS4_20_Prime_rehash_policyENS4_17_Hashtable_traitsILb0ELb0ELb1EEEE4findERS1_, symObjAddr: 0x1454, symBinAddr: 0x1000058F4, symSize: 0xF8 }
  - { offset: 0x12450, size: 0x8, addend: 0x0, symName: __ZNKSt8__detail14_Node_iteratorISt4pairIKNSt7__cxx1112basic_stringIcSt11char_traitsIcESaIcEEESt13unordered_mapIixSt4hashIiESt8equal_toIiESaIS1_IKixEEEELb0ELb1EEptEv, symObjAddr: 0x1424, symBinAddr: 0x1000058C4, symSize: 0x30 }
  - { offset: 0x1249D, size: 0x8, addend: 0x0, symName: __ZNSt10_HashtableINSt7__cxx1112basic_stringIcSt11char_traitsIcESaIcEEESt4pairIKS5_St13unordered_mapIixSt4hashIiESt8equal_toIiESaIS6_IKixEEEESaISH_ENSt8__detail10_Select1stESB_IS5_ES9_IS5_ENSJ_18_Mod_range_hashingENSJ_20_Default_ranged_hashENSJ_20_Prime_rehash_policyENSJ_17_Hashtable_traitsILb1ELb0ELb1EEEE21_M_insert_unique_nodeEmmPNSJ_10_Hash_nodeISH_Lb1EEEm, symObjAddr: 0x1314, symBinAddr: 0x1000057B4, symSize: 0x110 }
  - { offset: 0x12551, size: 0x8, addend: 0x0, symName: __ZNSt10_HashtableINSt7__cxx1112basic_stringIcSt11char_traitsIcESaIcEEESt4pairIKS5_St13unordered_mapIixSt4hashIiESt8equal_toIiESaIS6_IKixEEEESaISH_ENSt8__detail10_Select1stESB_IS5_ES9_IS5_ENSJ_18_Mod_range_hashingENSJ_20_Default_ranged_hashENSJ_20_Prime_rehash_policyENSJ_17_Hashtable_traitsILb1ELb0ELb1EEEE12_Scoped_nodeD1Ev, symObjAddr: 0x12D0, symBinAddr: 0x100005770, symSize: 0x44 }
  - { offset: 0x125C7, size: 0x8, addend: 0x0, symName: __ZNSt10_HashtableINSt7__cxx1112basic_stringIcSt11char_traitsIcESaIcEEESt4pairIKS5_St13unordered_mapIixSt4hashIiESt8equal_toIiESaIS6_IKixEEEESaISH_ENSt8__detail10_Select1stESB_IS5_ES9_IS5_ENSJ_18_Mod_range_hashingENSJ_20_Default_ranged_hashENSJ_20_Prime_rehash_policyENSJ_17_Hashtable_traitsILb1ELb0ELb1EEEE12_Scoped_nodeC1IJRKSt21piecewise_construct_tSt5tupleIJRS7_EESY_IJEEEEEPNSJ_16_Hashtable_allocISaINSJ_10_Hash_nodeISH_Lb1EEEEEEDpOT_, symObjAddr: 0x1248, symBinAddr: 0x1000056E8, symSize: 0x88 }
  - { offset: 0x12658, size: 0x8, addend: 0x0, symName: __ZNSt5tupleIJRKNSt7__cxx1112basic_stringIcSt11char_traitsIcESaIcEEEEEC1ILb1ELb1EEES7_, symObjAddr: 0x1220, symBinAddr: 0x1000056C0, symSize: 0x28 }
  - { offset: 0x126A4, size: 0x8, addend: 0x0, symName: __ZNKSt10_HashtableINSt7__cxx1112basic_stringIcSt11char_traitsIcESaIcEEESt4pairIKS5_St13unordered_mapIixSt4hashIiESt8equal_toIiESaIS6_IKixEEEESaISH_ENSt8__detail10_Select1stESB_IS5_ES9_IS5_ENSJ_18_Mod_range_hashingENSJ_20_Default_ranged_hashENSJ_20_Prime_rehash_policyENSJ_17_Hashtable_traitsILb1ELb0ELb1EEEE12_M_find_nodeEmRS7_m, symObjAddr: 0x11CC, symBinAddr: 0x10000566C, symSize: 0x54 }
  - { offset: 0x12712, size: 0x8, addend: 0x0, symName: __ZNKSt10_HashtableINSt7__cxx1112basic_stringIcSt11char_traitsIcESaIcEEESt4pairIKS5_St13unordered_mapIixSt4hashIiESt8equal_toIiESaIS6_IKixEEEESaISH_ENSt8__detail10_Select1stESB_IS5_ES9_IS5_ENSJ_18_Mod_range_hashingENSJ_20_Default_ranged_hashENSJ_20_Prime_rehash_policyENSJ_17_Hashtable_traitsILb1ELb0ELb1EEEE15_M_bucket_indexEm, symObjAddr: 0x119C, symBinAddr: 0x10000563C, symSize: 0x30 }
  - { offset: 0x1274D, size: 0x8, addend: 0x0, symName: __ZNKSt8__detail15_Hash_code_baseINSt7__cxx1112basic_stringIcSt11char_traitsIcESaIcEEESt4pairIKS6_St13unordered_mapIixSt4hashIiESt8equal_toIiESaIS7_IKixEEEENS_10_Select1stESA_IS6_ENS_18_Mod_range_hashingENS_20_Default_ranged_hashELb1EE12_M_hash_codeERS8_, symObjAddr: 0x1174, symBinAddr: 0x100005614, symSize: 0x28 }
  - { offset: 0x12788, size: 0x8, addend: 0x0, symName: __ZNKSt10_HashtableINSt7__cxx1112basic_stringIcSt11char_traitsIcESaIcEEESt4pairIKS5_St13unordered_mapIixSt4hashIiESt8equal_toIiESaIS6_IKixEEEESaISH_ENSt8__detail10_Select1stESB_IS5_ES9_IS5_ENSJ_18_Mod_range_hashingENSJ_20_Default_ranged_hashENSJ_20_Prime_rehash_policyENSJ_17_Hashtable_traitsILb1ELb0ELb1EEEE4findERS7_, symObjAddr: 0x107C, symBinAddr: 0x10000551C, symSize: 0xF8 }
  - { offset: 0x12809, size: 0x8, addend: 0x0, symName: __ZNSt10_HashtableINSt7__cxx1112basic_stringIcSt11char_traitsIcESaIcEEESt4pairIKS5_St13unordered_mapIixSt4hashIiESt8equal_toIiESaIS6_IKixEEEESaISH_ENSt8__detail10_Select1stESB_IS5_ES9_IS5_ENSJ_18_Mod_range_hashingENSJ_20_Default_ranged_hashENSJ_20_Prime_rehash_policyENSJ_17_Hashtable_traitsILb1ELb0ELb1EEEE21_M_deallocate_bucketsEPPNSJ_15_Hash_node_baseEm, symObjAddr: 0x1030, symBinAddr: 0x1000054D0, symSize: 0x4C }
  - { offset: 0x12855, size: 0x8, addend: 0x0, symName: __ZNSt8__detail16_Hashtable_allocISaINS_10_Hash_nodeISt4pairIKNSt7__cxx1112basic_stringIcSt11char_traitsIcESaIcEEESt13unordered_mapIixSt4hashIiESt8equal_toIiESaIS2_IKixEEEELb1EEEEE19_M_deallocate_nodesEPSK_, symObjAddr: 0xFE0, symBinAddr: 0x100005480, symSize: 0x50 }
  - { offset: 0x128B4, size: 0x8, addend: 0x0, symName: __ZNKSt10_HashtableINSt7__cxx1112basic_stringIcSt11char_traitsIcESaIcEEESt4pairIKS5_St13unordered_mapIixSt4hashIiESt8equal_toIiESaIS6_IKixEEEESaISH_ENSt8__detail10_Select1stESB_IS5_ES9_IS5_ENSJ_18_Mod_range_hashingENSJ_20_Default_ranged_hashENSJ_20_Prime_rehash_policyENSJ_17_Hashtable_traitsILb1ELb0ELb1EEEE8_M_beginEv, symObjAddr: 0xFC8, symBinAddr: 0x100005468, symSize: 0x18 }
  - { offset: 0x128F3, size: 0x8, addend: 0x0, symName: __ZNSt8__detail9_Map_baseIiSt4pairIKixESaIS3_ENS_10_Select1stESt8equal_toIiESt4hashIiENS_18_Mod_range_hashingENS_20_Default_ranged_hashENS_20_Prime_rehash_policyENS_17_Hashtable_traitsILb0ELb0ELb1EEELb1EEixERS2_, symObjAddr: 0xEA8, symBinAddr: 0x100005348, symSize: 0x120 }
  - { offset: 0x129F7, size: 0x8, addend: 0x0, symName: __ZNKSt10_HashtableIiSt4pairIKixESaIS2_ENSt8__detail10_Select1stESt8equal_toIiESt4hashIiENS4_18_Mod_range_hashingENS4_20_Default_ranged_hashENS4_20_Prime_rehash_policyENS4_17_Hashtable_traitsILb0ELb0ELb1EEEE5countERS1_, symObjAddr: 0xE68, symBinAddr: 0x100005308, symSize: 0x40 }
  - { offset: 0x12A62, size: 0x8, addend: 0x0, symName: __ZNSt8__detail9_Map_baseINSt7__cxx1112basic_stringIcSt11char_traitsIcESaIcEEESt4pairIKS6_St13unordered_mapIixSt4hashIiESt8equal_toIiESaIS7_IKixEEEESaISI_ENS_10_Select1stESC_IS6_ESA_IS6_ENS_18_Mod_range_hashingENS_20_Default_ranged_hashENS_20_Prime_rehash_policyENS_17_Hashtable_traitsILb1ELb0ELb1EEELb1EEixERS8_, symObjAddr: 0xD48, symBinAddr: 0x1000051E8, symSize: 0x120 }
  - { offset: 0x12B66, size: 0x8, addend: 0x0, symName: __ZNKSt10_HashtableINSt7__cxx1112basic_stringIcSt11char_traitsIcESaIcEEESt4pairIKS5_St13unordered_mapIixSt4hashIiESt8equal_toIiESaIS6_IKixEEEESaISH_ENSt8__detail10_Select1stESB_IS5_ES9_IS5_ENSJ_18_Mod_range_hashingENSJ_20_Default_ranged_hashENSJ_20_Prime_rehash_policyENSJ_17_Hashtable_traitsILb1ELb0ELb1EEEE5countERS7_, symObjAddr: 0xD08, symBinAddr: 0x1000051A8, symSize: 0x40 }
  - { offset: 0x12BD1, size: 0x8, addend: 0x0, symName: __ZNSt10_HashtableINSt7__cxx1112basic_stringIcSt11char_traitsIcESaIcEEESt4pairIKS5_St13unordered_mapIixSt4hashIiESt8equal_toIiESaIS6_IKixEEEESaISH_ENSt8__detail10_Select1stESB_IS5_ES9_IS5_ENSJ_18_Mod_range_hashingENSJ_20_Default_ranged_hashENSJ_20_Prime_rehash_policyENSJ_17_Hashtable_traitsILb1ELb0ELb1EEEE21_M_deallocate_bucketsEv, symObjAddr: 0xCD4, symBinAddr: 0x100005174, symSize: 0x34 }
  - { offset: 0x12BFB, size: 0x8, addend: 0x0, symName: __ZNSt10_HashtableINSt7__cxx1112basic_stringIcSt11char_traitsIcESaIcEEESt4pairIKS5_St13unordered_mapIixSt4hashIiESt8equal_toIiESaIS6_IKixEEEESaISH_ENSt8__detail10_Select1stESB_IS5_ES9_IS5_ENSJ_18_Mod_range_hashingENSJ_20_Default_ranged_hashENSJ_20_Prime_rehash_policyENSJ_17_Hashtable_traitsILb1ELb0ELb1EEEE5clearEv, symObjAddr: 0xC74, symBinAddr: 0x100005114, symSize: 0x60 }
  - { offset: 0x12C46, size: 0x8, addend: 0x0, symName: __ZNSt15__new_allocatorINSt8__detail10_Hash_nodeISt4pairIKNSt7__cxx1112basic_stringIcSt11char_traitsIcESaIcEEESt13unordered_mapIixSt4hashIiESt8equal_toIiESaIS2_IKixEEEELb1EEEED2Ev, symObjAddr: 0xC60, symBinAddr: 0x100005100, symSize: 0x14 }
  - { offset: 0x12C80, size: 0x8, addend: 0x0, symName: __ZNSt13unordered_mapIixSt4hashIiESt8equal_toIiESaISt4pairIKixEEEixERS5_, symObjAddr: 0xC3C, symBinAddr: 0x1000050DC, symSize: 0x24 }
  - { offset: 0x12CBB, size: 0x8, addend: 0x0, symName: __ZNKSt13unordered_mapIixSt4hashIiESt8equal_toIiESaISt4pairIKixEEE5countERS5_, symObjAddr: 0xC18, symBinAddr: 0x1000050B8, symSize: 0x24 }
  - { offset: 0x12CF6, size: 0x8, addend: 0x0, symName: __ZNSt13unordered_mapINSt7__cxx1112basic_stringIcSt11char_traitsIcESaIcEEES_IixSt4hashIiESt8equal_toIiESaISt4pairIKixEEES6_IS5_ES8_IS5_ESaISA_IKS5_SE_EEEixERSH_, symObjAddr: 0xBF4, symBinAddr: 0x100005094, symSize: 0x24 }
  - { offset: 0x12D31, size: 0x8, addend: 0x0, symName: __ZNKSt13unordered_mapINSt7__cxx1112basic_stringIcSt11char_traitsIcESaIcEEES_IixSt4hashIiESt8equal_toIiESaISt4pairIKixEEES6_IS5_ES8_IS5_ESaISA_IKS5_SE_EEE5countERSH_, symObjAddr: 0xBD0, symBinAddr: 0x100005070, symSize: 0x24 }
  - { offset: 0x12D8D, size: 0x8, addend: 0x0, symName: __ZNSt10_HashtableINSt7__cxx1112basic_stringIcSt11char_traitsIcESaIcEEESt4pairIKS5_St13unordered_mapIixSt4hashIiESt8equal_toIiESaIS6_IKixEEEESaISH_ENSt8__detail10_Select1stESB_IS5_ES9_IS5_ENSJ_18_Mod_range_hashingENSJ_20_Default_ranged_hashENSJ_20_Prime_rehash_policyENSJ_17_Hashtable_traitsILb1ELb0ELb1EEEED1Ev, symObjAddr: 0xBA0, symBinAddr: 0x100005040, symSize: 0x30 }
  - { offset: 0x12DE8, size: 0x8, addend: 0x0, symName: __ZNSt8__detail21_Hashtable_ebo_helperILi0ESaINS_10_Hash_nodeISt4pairIKNSt7__cxx1112basic_stringIcSt11char_traitsIcESaIcEEESt13unordered_mapIixSt4hashIiESt8equal_toIiESaIS2_IKixEEEELb1EEEELb1EEC2Ev, symObjAddr: 0xB74, symBinAddr: 0x100005014, symSize: 0x2C }
  - { offset: 0x12E6A, size: 0x8, addend: 0x0, symName: __ZNSt8__detail21_Hashtable_ebo_helperILi0ESt8equal_toINSt7__cxx1112basic_stringIcSt11char_traitsIcESaIcEEEELb1EEC2Ev, symObjAddr: 0xB60, symBinAddr: 0x100005000, symSize: 0x14 }
  - { offset: 0x12EA7, size: 0x8, addend: 0x0, symName: __ZNSt8__detail21_Hashtable_ebo_helperILi1ESt4hashINSt7__cxx1112basic_stringIcSt11char_traitsIcESaIcEEEELb1EEC2Ev, symObjAddr: 0xB4C, symBinAddr: 0x100004FEC, symSize: 0x14 }
  - { offset: 0x12EE8, size: 0x8, addend: 0x0, symName: __ZN9__gnu_cxx6__stoaIlicJiEEET0_PFT_PKT1_PPS3_DpT2_EPKcS5_PmS9_, symObjAddr: 0xA48, symBinAddr: 0x100004EE8, symSize: 0x104 }
  - { offset: 0x13022, size: 0x8, addend: 0x0, symName: __ZZN9__gnu_cxx6__stoaIlicJiEEET0_PFT_PKT1_PPS3_DpT2_EPKcS5_PmS9_EN11_Save_errnoC1Ev, symObjAddr: 0x988, symBinAddr: 0x100004E28, symSize: 0x30 }
  - { offset: 0x1304A, size: 0x8, addend: 0x0, symName: __ZZN9__gnu_cxx6__stoaIlicJiEEET0_PFT_PKT1_PPS3_DpT2_EPKcS5_PmS9_EN11_Save_errnoD1Ev, symObjAddr: 0x9B8, symBinAddr: 0x100004E58, symSize: 0x50 }
  - { offset: 0x130AB, size: 0x8, addend: 0x0, symName: __ZZN9__gnu_cxx6__stoaIlicJiEEET0_PFT_PKT1_PPS3_DpT2_EPKcS5_PmS9_EN10_Range_chk6_S_chkElSt17integral_constantIbLb1EE, symObjAddr: 0xA08, symBinAddr: 0x100004EA8, symSize: 0x40 }
  - { offset: 0x130F6, size: 0x8, addend: 0x0, symName: _main, symObjAddr: 0x71C, symBinAddr: 0x100004BBC, symSize: 0x26C }
  - { offset: 0x13171, size: 0x8, addend: 0x0, symName: __Z2dpNSt7__cxx1112basic_stringIcSt11char_traitsIcESaIcEEEi, symObjAddr: 0x3F4, symBinAddr: 0x100004894, symSize: 0x328 }
  - { offset: 0x1320D, size: 0x8, addend: 0x0, symName: __ZNSt13unordered_mapINSt7__cxx1112basic_stringIcSt11char_traitsIcESaIcEEES_IixSt4hashIiESt8equal_toIiESaISt4pairIKixEEES6_IS5_ES8_IS5_ESaISA_IKS5_SE_EEEC1Ev, symObjAddr: 0x3D4, symBinAddr: 0x100004874, symSize: 0x20 }
  - { offset: 0x1324A, size: 0x8, addend: 0x0, symName: __ZNSt10_HashtableINSt7__cxx1112basic_stringIcSt11char_traitsIcESaIcEEESt4pairIKS5_St13unordered_mapIixSt4hashIiESt8equal_toIiESaIS6_IKixEEEESaISH_ENSt8__detail10_Select1stESB_IS5_ES9_IS5_ENSJ_18_Mod_range_hashingENSJ_20_Default_ranged_hashENSJ_20_Prime_rehash_policyENSJ_17_Hashtable_traitsILb1ELb0ELb1EEEEC1Ev, symObjAddr: 0x364, symBinAddr: 0x100004804, symSize: 0x70 }
  - { offset: 0x13294, size: 0x8, addend: 0x0, symName: __ZNSt8__detail16_Hashtable_allocISaINS_10_Hash_nodeISt4pairIKNSt7__cxx1112basic_stringIcSt11char_traitsIcESaIcEEESt13unordered_mapIixSt4hashIiESt8equal_toIiESaIS2_IKixEEEELb1EEEEED2Ev, symObjAddr: 0x344, symBinAddr: 0x1000047E4, symSize: 0x20 }
  - { offset: 0x132D1, size: 0x8, addend: 0x0, symName: __ZNSt8__detail16_Hashtable_allocISaINS_10_Hash_nodeISt4pairIKNSt7__cxx1112basic_stringIcSt11char_traitsIcESaIcEEESt13unordered_mapIixSt4hashIiESt8equal_toIiESaIS2_IKixEEEELb1EEEEEC2Ev, symObjAddr: 0x324, symBinAddr: 0x1000047C4, symSize: 0x20 }
  - { offset: 0x1331B, size: 0x8, addend: 0x0, symName: __ZNSt8__detail21_Hashtable_ebo_helperILi0ESaINS_10_Hash_nodeISt4pairIKNSt7__cxx1112basic_stringIcSt11char_traitsIcESaIcEEESt13unordered_mapIixSt4hashIiESt8equal_toIiESaIS2_IKixEEEELb1EEEELb1EED2Ev, symObjAddr: 0x2F8, symBinAddr: 0x100004798, symSize: 0x2C }
  - { offset: 0x1337B, size: 0x8, addend: 0x0, symName: __ZNSt8__detail15_Hashtable_baseINSt7__cxx1112basic_stringIcSt11char_traitsIcESaIcEEESt4pairIKS6_St13unordered_mapIixSt4hashIiESt8equal_toIiESaIS7_IKixEEEENS_10_Select1stESC_IS6_ESA_IS6_ENS_18_Mod_range_hashingENS_20_Default_ranged_hashENS_17_Hashtable_traitsILb1ELb0ELb1EEEEC2Ev, symObjAddr: 0x2D0, symBinAddr: 0x100004770, symSize: 0x28 }
  - { offset: 0x133B8, size: 0x8, addend: 0x0, symName: __ZNSt8__detail15_Hash_code_baseINSt7__cxx1112basic_stringIcSt11char_traitsIcESaIcEEESt4pairIKS6_St13unordered_mapIixSt4hashIiESt8equal_toIiESaIS7_IKixEEEENS_10_Select1stESA_IS6_ENS_18_Mod_range_hashingENS_20_Default_ranged_hashELb1EEC2Ev, symObjAddr: 0x2B0, symBinAddr: 0x100004750, symSize: 0x20 }
  - { offset: 0x133DD, size: 0x8, addend: 0x0, symName: __ZNSt8__detail20_Prime_rehash_policy8_M_resetEm, symObjAddr: 0x28C, symBinAddr: 0x10000472C, symSize: 0x24 }
  - { offset: 0x13418, size: 0x8, addend: 0x0, symName: __ZNKSt8__detail20_Prime_rehash_policy8_M_stateEv, symObjAddr: 0x274, symBinAddr: 0x100004714, symSize: 0x18 }
  - { offset: 0x13468, size: 0x8, addend: 0x0, symName: __ZNSt8__detail20_Prime_rehash_policyC1Ef, symObjAddr: 0x248, symBinAddr: 0x1000046E8, symSize: 0x2C }
  - { offset: 0x13495, size: 0x8, addend: 0x0, symName: __ZNKSt8__detail18_Mod_range_hashingclEmm, symObjAddr: 0x218, symBinAddr: 0x1000046B8, symSize: 0x30 }
  - { offset: 0x134F9, size: 0x8, addend: 0x0, symName: __ZNSt8__detail15_Hash_node_baseC1Ev, symObjAddr: 0x1FC, symBinAddr: 0x10000469C, symSize: 0x1C }
  - { offset: 0x13521, size: 0x8, addend: 0x0, symName: __ZNSt8__detail15_Hash_node_baseC2Ev, symObjAddr: 0x1E0, symBinAddr: 0x100004680, symSize: 0x1C }
  - { offset: 0x13541, size: 0x8, addend: 0x0, symName: __ZNSt7__cxx114stoiERKNS_12basic_stringIcSt11char_traitsIcESaIcEEEPmi, symObjAddr: 0x19C, symBinAddr: 0x10000463C, symSize: 0x44 }
  - { offset: 0x1358C, size: 0x8, addend: 0x0, symName: __ZNSt10_Hash_impl4hashEPKvmm, symObjAddr: 0x170, symBinAddr: 0x100004610, symSize: 0x2C }
  - { offset: 0x135D9, size: 0x8, addend: 0x0, symName: __ZNKSt4hashIiEclEi, symObjAddr: 0x158, symBinAddr: 0x1000045F8, symSize: 0x18 }
  - { offset: 0x1360E, size: 0x8, addend: 0x0, symName: __ZNSt11char_traitsIcE7compareEPKcS2_m, symObjAddr: 0x68, symBinAddr: 0x100004508, symSize: 0xF0 }
  - { offset: 0x13697, size: 0x8, addend: 0x0, symName: __ZNSt11char_traitsIcE2ltERKcS2_, symObjAddr: 0x30, symBinAddr: 0x1000044D0, symSize: 0x38 }
  - { offset: 0x136D9, size: 0x8, addend: 0x0, symName: __ZdlPvS_, symObjAddr: 0x18, symBinAddr: 0x1000044B8, symSize: 0x18 }
  - { offset: 0x1370F, size: 0x8, addend: 0x0, symName: __ZnwmPv, symObjAddr: 0x0, symBinAddr: 0x1000044A0, symSize: 0x18 }
...
